Archive member included to satisfy reference by file (symbol)

h:/bin/../lib/gcc/avr/4.9.2/avr4\libgcc.a(_udivmodqi4.o)
                              Release\obj\lib\bcd.o (__udivmodqi4)
h:/bin/../lib/gcc/avr/4.9.2/avr4\libgcc.a(_udivmodhi4.o)
                              Release\obj\control.o (__udivmodhi4)
h:/bin/../lib/gcc/avr/4.9.2/avr4\libgcc.a(_divmodsi4.o)
                              Release\obj\control.o (__divmodsi4)
h:/bin/../lib/gcc/avr/4.9.2/avr4\libgcc.a(_negsi2.o)
                              h:/bin/../lib/gcc/avr/4.9.2/avr4\libgcc.a(_divmodsi4.o) (__negsi2)
h:/bin/../lib/gcc/avr/4.9.2/avr4\libgcc.a(_exit.o)
                              h:/bin/../lib/gcc/avr/4.9.2/../../../../avr/lib/avr4/crtatmega8.o (exit)
h:/bin/../lib/gcc/avr/4.9.2/avr4\libgcc.a(_copy_data.o)
                              Release\obj\control.o (__do_copy_data)
h:/bin/../lib/gcc/avr/4.9.2/avr4\libgcc.a(_clear_bss.o)
                              Release\obj\control.o (__do_clear_bss)
h:/bin/../lib/gcc/avr/4.9.2/avr4\libgcc.a(_umulhisi3.o)
                              Release\obj\control.o (__umulhisi3)
h:/bin/../lib/gcc/avr/4.9.2/avr4\libgcc.a(_muluhisi3.o)
                              Release\obj\control.o (__muluhisi3)
h:/bin/../lib/gcc/avr/4.9.2/avr4\libgcc.a(_udivmodsi4.o)
                              h:/bin/../lib/gcc/avr/4.9.2/avr4\libgcc.a(_divmodsi4.o) (__udivmodsi4)
h:/bin/../lib/gcc/avr/4.9.2/../../../../avr/lib/avr4\libatmega8.a(eerd_block.o)
                              Release\obj\Sets.o (eeprom_read_block)
h:/bin/../lib/gcc/avr/4.9.2/../../../../avr/lib/avr4\libatmega8.a(eeupd_block.o)
                              Release\obj\Sets.o (eeprom_update_block)
h:/bin/../lib/gcc/avr/4.9.2/../../../../avr/lib/avr4\libatmega8.a(eeupd_byte.o)
                              h:/bin/../lib/gcc/avr/4.9.2/../../../../avr/lib/avr4\libatmega8.a(eeupd_block.o) (eeprom_update_r18)

Allocating common symbols
Common symbol       size              file

v_OLed              0x1               Release\obj\control.o
TimerTaskID         0x1               Release\obj\control.o
szParamVal_Buf      0x8               Release\obj\Menu.o
vInType             0x2               Release\obj\main.o
vSQ_State           0x1               Release\obj\control.o
r_CntTimers         0x1               Release\obj\RTOSA\RTOSA.o
TaskQueue           0x8               Release\obj\control.o
T0_Reload           0x1               Release\obj\RTOSA\RTOSA.o
v_KBD               0x5               Release\obj\lib\KBD_3x1.o
vDinOff             0x1               Release\obj\lib\LedDin.o
vSets               0x12              Release\obj\Sets.o
r_RND               0x1               Release\obj\RTOSA\RTOSA.o
Buff_ADC6           0x15              Release\obj\lib\ADC.o
pszError            0x2               Release\obj\control.o
v_LED3Buf           0x8               Release\obj\lib\MenuHAL.o
Buff_ADC5           0x15              Release\obj\lib\ADC.o
vLED_CA_CC          0x1               Release\obj\lib\LedDin.o
Buff_ADC4           0x15              Release\obj\lib\ADC.o
v_CntUnld           0x1               Release\obj\control.o
flgTimerEdit        0x1               Release\obj\lib\MenuHAL.o
v_cnt_FultTS2_Unload
                    0x1               Release\obj\main.o
v_Menu              0x8               Release\obj\lib\MenuHAL.o
pszState            0x2               Release\obj\control.o
v_ORele_Manual      0x1               Release\obj\control.o
szParamName_Buf     0x8               Release\obj\Menu.o
SQ1_Off_TaskID      0x1               Release\obj\control.o
vRegParam           0xa               Release\obj\main.o
MenuStk             0xc               Release\obj\control.o
SQ1_On_TaskID       0x1               Release\obj\control.o
pfDin_Out           0x2               Release\obj\lib\LedDin.o
vStateNextTime      0x2               Release\obj\main.o
TimersPool          0x20              Release\obj\control.o
v_Param             0x7               Release\obj\control.o
Buff_ADC0           0x15              Release\obj\lib\ADC.o
r_TaskS             0x1               Release\obj\RTOSA\RTOSA.o
v_Time              0x4               Release\obj\control.o
MenuSP              0x1               Release\obj\control.o
r_CntTask           0x1               Release\obj\RTOSA\RTOSA.o
vOS_Tick            0x4               Release\obj\RTOSA\RTOSA.o
Buff_ADC2           0x15              Release\obj\lib\ADC.o
vSets_com           0xc               Release\obj\Sets.o
vStateForWait       0x2               Release\obj\main.o
rCRC8               0x1               Release\obj\control.o
Buff_ADC1           0x15              Release\obj\lib\ADC.o
Buff_ADC3           0x15              Release\obj\lib\ADC.o
v_ORele             0x1               Release\obj\control.o
Buff_ADC7           0x15              Release\obj\lib\ADC.o
szFaultBuf          0x10              Release\obj\control.o
v_OLed_Manual       0x1               Release\obj\control.o
v_N_Unload          0x1               Release\obj\main.o
vFlash              0x1               Release\obj\main.o

Discarded input sections

 .data          0x00000000        0x0 h:/bin/../lib/gcc/avr/4.9.2/../../../../avr/lib/avr4/crtatmega8.o
 .bss           0x00000000        0x0 h:/bin/../lib/gcc/avr/4.9.2/../../../../avr/lib/avr4/crtatmega8.o
 .data          0x00000000        0x0 Release\obj\control.o
 .bss           0x00000000        0x0 Release\obj\control.o
 .progmem.data.cReleLedTest
                0x00000000        0xf Release\obj\control.o
 .progmem.data.szFaultTen
                0x00000000        0x3 Release\obj\control.o
 .progmem.data.szFaultCRC
                0x00000000        0x3 Release\obj\control.o
 .progmem.data.szState_H
                0x00000000        0x3 Release\obj\control.o
 .progmem.data.szState_P
                0x00000000        0x3 Release\obj\control.o
 .text          0x00000000        0x0 Release\obj\fuse_m8.o
 .data          0x00000000        0x0 Release\obj\fuse_m8.o
 .bss           0x00000000        0x0 Release\obj\fuse_m8.o
 .data          0x00000000        0x0 Release\obj\lib\ADC.o
 .bss           0x00000000        0x0 Release\obj\lib\ADC.o
 .text          0x00000000       0x2a Release\obj\lib\bcd.o
 .data          0x00000000        0x0 Release\obj\lib\bcd.o
 .bss           0x00000000        0x0 Release\obj\lib\bcd.o
 .debug_info    0x00000000       0x8c Release\obj\lib\bcd.o
 .debug_abbrev  0x00000000       0x64 Release\obj\lib\bcd.o
 .debug_loc     0x00000000       0x42 Release\obj\lib\bcd.o
 .debug_aranges
                0x00000000       0x20 Release\obj\lib\bcd.o
 .debug_line    0x00000000       0x39 Release\obj\lib\bcd.o
 .debug_str     0x00000000       0xd3 Release\obj\lib\bcd.o
 .comment       0x00000000       0x31 Release\obj\lib\bcd.o
 .debug_frame   0x00000000       0x34 Release\obj\lib\bcd.o
 .data          0x00000000        0x0 Release\obj\lib\KBD_3x1.o
 .bss           0x00000000        0x0 Release\obj\lib\KBD_3x1.o
 .data          0x00000000        0x0 Release\obj\lib\LedDin.o
 .bss           0x00000000        0x0 Release\obj\lib\LedDin.o
 .data          0x00000000        0x0 Release\obj\lib\MenuHAL.o
 .bss           0x00000000        0x0 Release\obj\lib\MenuHAL.o
 .progmem.data.CUNUM_AutoRun
                0x00000000        0xb Release\obj\lib\MenuHAL.o
 .progmem.data.CUNUM_AutoRunsz
                0x00000000        0x3 Release\obj\lib\MenuHAL.o
 .progmem.data.CUNUM_T_TEN
                0x00000000        0xb Release\obj\lib\MenuHAL.o
 .progmem.data.CUNUM_T_TENsz
                0x00000000        0x3 Release\obj\lib\MenuHAL.o
 .data          0x00000000        0x0 Release\obj\lib\vPorts.o
 .bss           0x00000000        0x0 Release\obj\lib\vPorts.o
 .data          0x00000000        0x0 Release\obj\lib\xitoa.o
 .data          0x00000000        0x0 Release\obj\main.o
 .bss           0x00000000        0x0 Release\obj\main.o
 .data          0x00000000        0x0 Release\obj\Menu.o
 .bss           0x00000000        0x0 Release\obj\Menu.o
 .progmem.data.szt
                0x00000000        0x3 Release\obj\Menu.o
 .text          0x00000000       0x1c Release\obj\RTOSA\Debug.o
 .data          0x00000000        0x0 Release\obj\RTOSA\Debug.o
 .bss           0x00000000        0x0 Release\obj\RTOSA\Debug.o
 .debug_info    0x00000000      0x476 Release\obj\RTOSA\Debug.o
 .debug_abbrev  0x00000000      0x10f Release\obj\RTOSA\Debug.o
 .debug_aranges
                0x00000000       0x20 Release\obj\RTOSA\Debug.o
 .debug_line    0x00000000      0x1a2 Release\obj\RTOSA\Debug.o
 .debug_str     0x00000000      0x351 Release\obj\RTOSA\Debug.o
 .comment       0x00000000       0x31 Release\obj\RTOSA\Debug.o
 .debug_frame   0x00000000       0x34 Release\obj\RTOSA\Debug.o
 .data          0x00000000        0x0 Release\obj\RTOSA\RTOSA.o
 .bss           0x00000000        0x0 Release\obj\RTOSA\RTOSA.o
 .data          0x00000000        0x0 Release\obj\Sets.o
 .bss           0x00000000        0x0 Release\obj\Sets.o
 .text          0x00000000        0x0 Release\obj\SN.o
 .data          0x00000000        0x0 Release\obj\SN.o
 .bss           0x00000000        0x0 Release\obj\SN.o
 .debug_line    0x00000000        0x0 Release\obj\SN.o
 .debug_str     0x00000000       0xa1 Release\obj\SN.o
 .comment       0x00000000       0x31 Release\obj\SN.o
 .text          0x00000000        0x0 Release\obj\Tasks.o
 .data          0x00000000        0x0 Release\obj\Tasks.o
 .bss           0x00000000        0x0 Release\obj\Tasks.o
 .text          0x00000000        0x0 h:/bin/../lib/gcc/avr/4.9.2/avr4\libgcc.a(_udivmodqi4.o)
 .data          0x00000000        0x0 h:/bin/../lib/gcc/avr/4.9.2/avr4\libgcc.a(_udivmodqi4.o)
 .bss           0x00000000        0x0 h:/bin/../lib/gcc/avr/4.9.2/avr4\libgcc.a(_udivmodqi4.o)
 .text.libgcc.mul
                0x00000000        0x0 h:/bin/../lib/gcc/avr/4.9.2/avr4\libgcc.a(_udivmodqi4.o)
 .text.libgcc   0x00000000        0x0 h:/bin/../lib/gcc/avr/4.9.2/avr4\libgcc.a(_udivmodqi4.o)
 .text.libgcc.prologue
                0x00000000        0x0 h:/bin/../lib/gcc/avr/4.9.2/avr4\libgcc.a(_udivmodqi4.o)
 .text.libgcc.builtins
                0x00000000        0x0 h:/bin/../lib/gcc/avr/4.9.2/avr4\libgcc.a(_udivmodqi4.o)
 .text.libgcc.fmul
                0x00000000        0x0 h:/bin/../lib/gcc/avr/4.9.2/avr4\libgcc.a(_udivmodqi4.o)
 .text.libgcc.fixed
                0x00000000        0x0 h:/bin/../lib/gcc/avr/4.9.2/avr4\libgcc.a(_udivmodqi4.o)
 .text          0x00000000        0x0 h:/bin/../lib/gcc/avr/4.9.2/avr4\libgcc.a(_udivmodhi4.o)
 .data          0x00000000        0x0 h:/bin/../lib/gcc/avr/4.9.2/avr4\libgcc.a(_udivmodhi4.o)
 .bss           0x00000000        0x0 h:/bin/../lib/gcc/avr/4.9.2/avr4\libgcc.a(_udivmodhi4.o)
 .text.libgcc.mul
                0x00000000        0x0 h:/bin/../lib/gcc/avr/4.9.2/avr4\libgcc.a(_udivmodhi4.o)
 .text.libgcc   0x00000000        0x0 h:/bin/../lib/gcc/avr/4.9.2/avr4\libgcc.a(_udivmodhi4.o)
 .text.libgcc.prologue
                0x00000000        0x0 h:/bin/../lib/gcc/avr/4.9.2/avr4\libgcc.a(_udivmodhi4.o)
 .text.libgcc.builtins
                0x00000000        0x0 h:/bin/../lib/gcc/avr/4.9.2/avr4\libgcc.a(_udivmodhi4.o)
 .text.libgcc.fmul
                0x00000000        0x0 h:/bin/../lib/gcc/avr/4.9.2/avr4\libgcc.a(_udivmodhi4.o)
 .text.libgcc.fixed
                0x00000000        0x0 h:/bin/../lib/gcc/avr/4.9.2/avr4\libgcc.a(_udivmodhi4.o)
 .text          0x00000000        0x0 h:/bin/../lib/gcc/avr/4.9.2/avr4\libgcc.a(_divmodsi4.o)
 .data          0x00000000        0x0 h:/bin/../lib/gcc/avr/4.9.2/avr4\libgcc.a(_divmodsi4.o)
 .bss           0x00000000        0x0 h:/bin/../lib/gcc/avr/4.9.2/avr4\libgcc.a(_divmodsi4.o)
 .text.libgcc.mul
                0x00000000        0x0 h:/bin/../lib/gcc/avr/4.9.2/avr4\libgcc.a(_divmodsi4.o)
 .text.libgcc   0x00000000        0x0 h:/bin/../lib/gcc/avr/4.9.2/avr4\libgcc.a(_divmodsi4.o)
 .text.libgcc.prologue
                0x00000000        0x0 h:/bin/../lib/gcc/avr/4.9.2/avr4\libgcc.a(_divmodsi4.o)
 .text.libgcc.builtins
                0x00000000        0x0 h:/bin/../lib/gcc/avr/4.9.2/avr4\libgcc.a(_divmodsi4.o)
 .text.libgcc.fmul
                0x00000000        0x0 h:/bin/../lib/gcc/avr/4.9.2/avr4\libgcc.a(_divmodsi4.o)
 .text.libgcc.fixed
                0x00000000        0x0 h:/bin/../lib/gcc/avr/4.9.2/avr4\libgcc.a(_divmodsi4.o)
 .text          0x00000000        0x0 h:/bin/../lib/gcc/avr/4.9.2/avr4\libgcc.a(_negsi2.o)
 .data          0x00000000        0x0 h:/bin/../lib/gcc/avr/4.9.2/avr4\libgcc.a(_negsi2.o)
 .bss           0x00000000        0x0 h:/bin/../lib/gcc/avr/4.9.2/avr4\libgcc.a(_negsi2.o)
 .text.libgcc.mul
                0x00000000        0x0 h:/bin/../lib/gcc/avr/4.9.2/avr4\libgcc.a(_negsi2.o)
 .text.libgcc   0x00000000        0x0 h:/bin/../lib/gcc/avr/4.9.2/avr4\libgcc.a(_negsi2.o)
 .text.libgcc.prologue
                0x00000000        0x0 h:/bin/../lib/gcc/avr/4.9.2/avr4\libgcc.a(_negsi2.o)
 .text.libgcc.builtins
                0x00000000        0x0 h:/bin/../lib/gcc/avr/4.9.2/avr4\libgcc.a(_negsi2.o)
 .text.libgcc.fmul
                0x00000000        0x0 h:/bin/../lib/gcc/avr/4.9.2/avr4\libgcc.a(_negsi2.o)
 .text.libgcc.fixed
                0x00000000        0x0 h:/bin/../lib/gcc/avr/4.9.2/avr4\libgcc.a(_negsi2.o)
 .text          0x00000000        0x0 h:/bin/../lib/gcc/avr/4.9.2/avr4\libgcc.a(_exit.o)
 .data          0x00000000        0x0 h:/bin/../lib/gcc/avr/4.9.2/avr4\libgcc.a(_exit.o)
 .bss           0x00000000        0x0 h:/bin/../lib/gcc/avr/4.9.2/avr4\libgcc.a(_exit.o)
 .text.libgcc.mul
                0x00000000        0x0 h:/bin/../lib/gcc/avr/4.9.2/avr4\libgcc.a(_exit.o)
 .text.libgcc.div
                0x00000000        0x0 h:/bin/../lib/gcc/avr/4.9.2/avr4\libgcc.a(_exit.o)
 .text.libgcc   0x00000000        0x0 h:/bin/../lib/gcc/avr/4.9.2/avr4\libgcc.a(_exit.o)
 .text.libgcc.prologue
                0x00000000        0x0 h:/bin/../lib/gcc/avr/4.9.2/avr4\libgcc.a(_exit.o)
 .text.libgcc.builtins
                0x00000000        0x0 h:/bin/../lib/gcc/avr/4.9.2/avr4\libgcc.a(_exit.o)
 .text.libgcc.fmul
                0x00000000        0x0 h:/bin/../lib/gcc/avr/4.9.2/avr4\libgcc.a(_exit.o)
 .text.libgcc.fixed
                0x00000000        0x0 h:/bin/../lib/gcc/avr/4.9.2/avr4\libgcc.a(_exit.o)
 .text          0x00000000        0x0 h:/bin/../lib/gcc/avr/4.9.2/avr4\libgcc.a(_copy_data.o)
 .data          0x00000000        0x0 h:/bin/../lib/gcc/avr/4.9.2/avr4\libgcc.a(_copy_data.o)
 .bss           0x00000000        0x0 h:/bin/../lib/gcc/avr/4.9.2/avr4\libgcc.a(_copy_data.o)
 .text.libgcc.mul
                0x00000000        0x0 h:/bin/../lib/gcc/avr/4.9.2/avr4\libgcc.a(_copy_data.o)
 .text.libgcc.div
                0x00000000        0x0 h:/bin/../lib/gcc/avr/4.9.2/avr4\libgcc.a(_copy_data.o)
 .text.libgcc   0x00000000        0x0 h:/bin/../lib/gcc/avr/4.9.2/avr4\libgcc.a(_copy_data.o)
 .text.libgcc.prologue
                0x00000000        0x0 h:/bin/../lib/gcc/avr/4.9.2/avr4\libgcc.a(_copy_data.o)
 .text.libgcc.builtins
                0x00000000        0x0 h:/bin/../lib/gcc/avr/4.9.2/avr4\libgcc.a(_copy_data.o)
 .text.libgcc.fmul
                0x00000000        0x0 h:/bin/../lib/gcc/avr/4.9.2/avr4\libgcc.a(_copy_data.o)
 .text.libgcc.fixed
                0x00000000        0x0 h:/bin/../lib/gcc/avr/4.9.2/avr4\libgcc.a(_copy_data.o)
 .text          0x00000000        0x0 h:/bin/../lib/gcc/avr/4.9.2/avr4\libgcc.a(_clear_bss.o)
 .data          0x00000000        0x0 h:/bin/../lib/gcc/avr/4.9.2/avr4\libgcc.a(_clear_bss.o)
 .bss           0x00000000        0x0 h:/bin/../lib/gcc/avr/4.9.2/avr4\libgcc.a(_clear_bss.o)
 .text.libgcc.mul
                0x00000000        0x0 h:/bin/../lib/gcc/avr/4.9.2/avr4\libgcc.a(_clear_bss.o)
 .text.libgcc.div
                0x00000000        0x0 h:/bin/../lib/gcc/avr/4.9.2/avr4\libgcc.a(_clear_bss.o)
 .text.libgcc   0x00000000        0x0 h:/bin/../lib/gcc/avr/4.9.2/avr4\libgcc.a(_clear_bss.o)
 .text.libgcc.prologue
                0x00000000        0x0 h:/bin/../lib/gcc/avr/4.9.2/avr4\libgcc.a(_clear_bss.o)
 .text.libgcc.builtins
                0x00000000        0x0 h:/bin/../lib/gcc/avr/4.9.2/avr4\libgcc.a(_clear_bss.o)
 .text.libgcc.fmul
                0x00000000        0x0 h:/bin/../lib/gcc/avr/4.9.2/avr4\libgcc.a(_clear_bss.o)
 .text.libgcc.fixed
                0x00000000        0x0 h:/bin/../lib/gcc/avr/4.9.2/avr4\libgcc.a(_clear_bss.o)
 .text          0x00000000        0x0 h:/bin/../lib/gcc/avr/4.9.2/avr4\libgcc.a(_umulhisi3.o)
 .data          0x00000000        0x0 h:/bin/../lib/gcc/avr/4.9.2/avr4\libgcc.a(_umulhisi3.o)
 .bss           0x00000000        0x0 h:/bin/../lib/gcc/avr/4.9.2/avr4\libgcc.a(_umulhisi3.o)
 .text.libgcc.div
                0x00000000        0x0 h:/bin/../lib/gcc/avr/4.9.2/avr4\libgcc.a(_umulhisi3.o)
 .text.libgcc   0x00000000        0x0 h:/bin/../lib/gcc/avr/4.9.2/avr4\libgcc.a(_umulhisi3.o)
 .text.libgcc.prologue
                0x00000000        0x0 h:/bin/../lib/gcc/avr/4.9.2/avr4\libgcc.a(_umulhisi3.o)
 .text.libgcc.builtins
                0x00000000        0x0 h:/bin/../lib/gcc/avr/4.9.2/avr4\libgcc.a(_umulhisi3.o)
 .text.libgcc.fmul
                0x00000000        0x0 h:/bin/../lib/gcc/avr/4.9.2/avr4\libgcc.a(_umulhisi3.o)
 .text.libgcc.fixed
                0x00000000        0x0 h:/bin/../lib/gcc/avr/4.9.2/avr4\libgcc.a(_umulhisi3.o)
 .text          0x00000000        0x0 h:/bin/../lib/gcc/avr/4.9.2/avr4\libgcc.a(_muluhisi3.o)
 .data          0x00000000        0x0 h:/bin/../lib/gcc/avr/4.9.2/avr4\libgcc.a(_muluhisi3.o)
 .bss           0x00000000        0x0 h:/bin/../lib/gcc/avr/4.9.2/avr4\libgcc.a(_muluhisi3.o)
 .text.libgcc.div
                0x00000000        0x0 h:/bin/../lib/gcc/avr/4.9.2/avr4\libgcc.a(_muluhisi3.o)
 .text.libgcc   0x00000000        0x0 h:/bin/../lib/gcc/avr/4.9.2/avr4\libgcc.a(_muluhisi3.o)
 .text.libgcc.prologue
                0x00000000        0x0 h:/bin/../lib/gcc/avr/4.9.2/avr4\libgcc.a(_muluhisi3.o)
 .text.libgcc.builtins
                0x00000000        0x0 h:/bin/../lib/gcc/avr/4.9.2/avr4\libgcc.a(_muluhisi3.o)
 .text.libgcc.fmul
                0x00000000        0x0 h:/bin/../lib/gcc/avr/4.9.2/avr4\libgcc.a(_muluhisi3.o)
 .text.libgcc.fixed
                0x00000000        0x0 h:/bin/../lib/gcc/avr/4.9.2/avr4\libgcc.a(_muluhisi3.o)
 .text          0x00000000        0x0 h:/bin/../lib/gcc/avr/4.9.2/avr4\libgcc.a(_udivmodsi4.o)
 .data          0x00000000        0x0 h:/bin/../lib/gcc/avr/4.9.2/avr4\libgcc.a(_udivmodsi4.o)
 .bss           0x00000000        0x0 h:/bin/../lib/gcc/avr/4.9.2/avr4\libgcc.a(_udivmodsi4.o)
 .text.libgcc.mul
                0x00000000        0x0 h:/bin/../lib/gcc/avr/4.9.2/avr4\libgcc.a(_udivmodsi4.o)
 .text.libgcc   0x00000000        0x0 h:/bin/../lib/gcc/avr/4.9.2/avr4\libgcc.a(_udivmodsi4.o)
 .text.libgcc.prologue
                0x00000000        0x0 h:/bin/../lib/gcc/avr/4.9.2/avr4\libgcc.a(_udivmodsi4.o)
 .text.libgcc.builtins
                0x00000000        0x0 h:/bin/../lib/gcc/avr/4.9.2/avr4\libgcc.a(_udivmodsi4.o)
 .text.libgcc.fmul
                0x00000000        0x0 h:/bin/../lib/gcc/avr/4.9.2/avr4\libgcc.a(_udivmodsi4.o)
 .text.libgcc.fixed
                0x00000000        0x0 h:/bin/../lib/gcc/avr/4.9.2/avr4\libgcc.a(_udivmodsi4.o)
 .text          0x00000000        0x0 h:/bin/../lib/gcc/avr/4.9.2/../../../../avr/lib/avr4\libatmega8.a(eerd_block.o)
 .data          0x00000000        0x0 h:/bin/../lib/gcc/avr/4.9.2/../../../../avr/lib/avr4\libatmega8.a(eerd_block.o)
 .bss           0x00000000        0x0 h:/bin/../lib/gcc/avr/4.9.2/../../../../avr/lib/avr4\libatmega8.a(eerd_block.o)
 .text          0x00000000        0x0 h:/bin/../lib/gcc/avr/4.9.2/../../../../avr/lib/avr4\libatmega8.a(eeupd_block.o)
 .data          0x00000000        0x0 h:/bin/../lib/gcc/avr/4.9.2/../../../../avr/lib/avr4\libatmega8.a(eeupd_block.o)
 .bss           0x00000000        0x0 h:/bin/../lib/gcc/avr/4.9.2/../../../../avr/lib/avr4\libatmega8.a(eeupd_block.o)
 .text          0x00000000        0x0 h:/bin/../lib/gcc/avr/4.9.2/../../../../avr/lib/avr4\libatmega8.a(eeupd_byte.o)
 .data          0x00000000        0x0 h:/bin/../lib/gcc/avr/4.9.2/../../../../avr/lib/avr4\libatmega8.a(eeupd_byte.o)
 .bss           0x00000000        0x0 h:/bin/../lib/gcc/avr/4.9.2/../../../../avr/lib/avr4\libatmega8.a(eeupd_byte.o)

Memory Configuration

Name             Origin             Length             Attributes
text             0x00000000         0x00002000         xr
data             0x00800060         0x0000ffa0         rw !x
eeprom           0x00810000         0x00010000         rw !x
fuse             0x00820000         0x00000400         rw !x
lock             0x00830000         0x00000400         rw !x
signature        0x00840000         0x00000400         rw !x
user_signatures  0x00850000         0x00000400         rw !x
*default*        0x00000000         0xffffffff

Linker script and memory map

LOAD h:/bin/../lib/gcc/avr/4.9.2/../../../../avr/lib/avr4/crtatmega8.o
LOAD Release\obj\control.o
LOAD Release\obj\fuse_m8.o
LOAD Release\obj\lib\ADC.o
LOAD Release\obj\lib\bcd.o
LOAD Release\obj\lib\KBD_3x1.o
LOAD Release\obj\lib\LedDin.o
LOAD Release\obj\lib\MenuHAL.o
LOAD Release\obj\lib\vPorts.o
LOAD Release\obj\lib\xitoa.o
LOAD Release\obj\main.o
LOAD Release\obj\Menu.o
LOAD Release\obj\RTOSA\Debug.o
LOAD Release\obj\RTOSA\RTOSA.o
LOAD Release\obj\Sets.o
LOAD Release\obj\SN.o
LOAD Release\obj\Tasks.o
START GROUP
LOAD h:/bin/../lib/gcc/avr/4.9.2/avr4\libgcc.a
LOAD h:/bin/../lib/gcc/avr/4.9.2/../../../../avr/lib/avr4\libm.a
LOAD h:/bin/../lib/gcc/avr/4.9.2/../../../../avr/lib/avr4\libc.a
LOAD h:/bin/../lib/gcc/avr/4.9.2/../../../../avr/lib/avr4\libatmega8.a
END GROUP

.hash
 *(.hash)

.dynsym
 *(.dynsym)

.dynstr
 *(.dynstr)

.gnu.version
 *(.gnu.version)

.gnu.version_d
 *(.gnu.version_d)

.gnu.version_r
 *(.gnu.version_r)

.rel.init
 *(.rel.init)

.rela.init
 *(.rela.init)

.rel.text
 *(.rel.text)
 *(.rel.text.*)
 *(.rel.gnu.linkonce.t*)

.rela.text
 *(.rela.text)
 *(.rela.text.*)
 *(.rela.gnu.linkonce.t*)

.rel.fini
 *(.rel.fini)

.rela.fini
 *(.rela.fini)

.rel.rodata
 *(.rel.rodata)
 *(.rel.rodata.*)
 *(.rel.gnu.linkonce.r*)

.rela.rodata
 *(.rela.rodata)
 *(.rela.rodata.*)
 *(.rela.gnu.linkonce.r*)

.rel.data
 *(.rel.data)
 *(.rel.data.*)
 *(.rel.gnu.linkonce.d*)

.rela.data
 *(.rela.data)
 *(.rela.data.*)
 *(.rela.gnu.linkonce.d*)

.rel.ctors
 *(.rel.ctors)

.rela.ctors
 *(.rela.ctors)

.rel.dtors
 *(.rel.dtors)

.rela.dtors
 *(.rela.dtors)

.rel.got
 *(.rel.got)

.rela.got
 *(.rela.got)

.rel.bss
 *(.rel.bss)

.rela.bss
 *(.rela.bss)

.rel.plt
 *(.rel.plt)

.rela.plt
 *(.rela.plt)

.text           0x00000000     0x1fea
 *(.vectors)
 .vectors       0x00000000       0x26 h:/bin/../lib/gcc/avr/4.9.2/../../../../avr/lib/avr4/crtatmega8.o
                0x00000000                __vectors
 *(.vectors)
 *(.progmem.gcc*)
 .progmem.gcc_sw_table
                0x00000026       0x2a Release\obj\control.o
                0x00000050                . = ALIGN (0x2)
                0x00000050                __trampolines_start = .
 *(.trampolines)
 .trampolines   0x00000050        0x0 linker stubs
 *(.trampolines*)
                0x00000050                __trampolines_end = .
 *(.progmem*)
 .progmem.data.szFaultFuel
                0x00000050        0x3 Release\obj\control.o
                0x00000050                szFaultFuel
 .progmem.data.szFaultCleaning
                0x00000053        0x3 Release\obj\control.o
                0x00000053                szFaultCleaning
 .progmem.data.szFaultTS2
                0x00000056        0x3 Release\obj\control.o
                0x00000056                szFaultTS2
 .progmem.data.szFaultCRCc
                0x00000059        0x3 Release\obj\control.o
                0x00000059                szFaultCRCc
 .progmem.data.szFaultCRCs
                0x0000005c        0x3 Release\obj\control.o
                0x0000005c                szFaultCRCs
 .progmem.data.szState_x
                0x0000005f        0x3 Release\obj\control.o
                0x0000005f                szState_x
 .progmem.data.szState_D
                0x00000062        0x3 Release\obj\control.o
                0x00000062                szState_D
 .progmem.data.szState_G
                0x00000065        0x3 Release\obj\control.o
                0x00000065                szState_G
 .progmem.data.szState_B
                0x00000068        0x3 Release\obj\control.o
                0x00000068                szState_B
 .progmem.data.szState_T
                0x0000006b        0x3 Release\obj\control.o
                0x0000006b                szState_T
 .progmem.data.szState_U
                0x0000006e        0x3 Release\obj\control.o
                0x0000006e                szState_U
 .progmem.data.szState_I
                0x00000071        0x3 Release\obj\control.o
                0x00000071                szState_I
 .progmem.data.szState_L
                0x00000074        0x3 Release\obj\control.o
                0x00000074                szState_L
 .progmem.data.v_ADC_Bufs
                0x00000077        0x6 Release\obj\lib\ADC.o
                0x00000077                v_ADC_Bufs
 .progmem.data.v_ADC_List
                0x0000007d        0x6 Release\obj\lib\ADC.o
                0x0000007d                v_ADC_List
 .progmem.data.Tab_7Seg
                0x00000083       0x10 Release\obj\lib\LedDin.o
                0x00000083                Tab_7Seg
 .progmem.data.StrLED_Brn
                0x00000093        0x3 Release\obj\lib\MenuHAL.o
                0x00000093                StrLED_Brn
 .progmem.data.StrLED_StP
                0x00000096        0x3 Release\obj\lib\MenuHAL.o
                0x00000096                StrLED_StP
 .progmem.data.Menu_Main
                0x00000099       0x10 Release\obj\lib\MenuHAL.o
                0x00000099                Menu_Main
 .progmem.data.CB_RunStop
                0x000000a9        0xb Release\obj\lib\MenuHAL.o
                0x000000a9                CB_RunStop
 .progmem.data.CB_RunStopsz
                0x000000b4        0x3 Release\obj\lib\MenuHAL.o
                0x000000b4                CB_RunStopsz
 .progmem.data.CUNUM_T_Ignition
                0x000000b7        0xb Release\obj\lib\MenuHAL.o
                0x000000b7                CUNUM_T_Ignition
 .progmem.data.CUNUM_T_Ignitionsz
                0x000000c2        0x3 Release\obj\lib\MenuHAL.o
                0x000000c2                CUNUM_T_Ignitionsz
 .progmem.data.CUNUM_N_Ignition
                0x000000c5        0xb Release\obj\lib\MenuHAL.o
                0x000000c5                CUNUM_N_Ignition
 .progmem.data.CUNUM_N_Ignitionsz
                0x000000d0        0x3 Release\obj\lib\MenuHAL.o
                0x000000d0                CUNUM_N_Ignitionsz
 .progmem.data.CUNUM_Temp1
                0x000000d3        0xb Release\obj\lib\MenuHAL.o
                0x000000d3                CUNUM_Temp1
 .progmem.data.CUNUM_Temp1sz
                0x000000de        0x3 Release\obj\lib\MenuHAL.o
                0x000000de                CUNUM_Temp1sz
 .progmem.data.CUNUM_N_Unload
                0x000000e1        0xb Release\obj\lib\MenuHAL.o
                0x000000e1                CUNUM_N_Unload
 .progmem.data.CUNUM_N_Unloadsz
                0x000000ec        0x3 Release\obj\lib\MenuHAL.o
                0x000000ec                CUNUM_N_Unloadsz
 .progmem.data.CUNUM_T_Pause
                0x000000ef        0xb Release\obj\lib\MenuHAL.o
                0x000000ef                CUNUM_T_Pause
 .progmem.data.CUNUM_T_Pausesz
                0x000000fa        0x3 Release\obj\lib\MenuHAL.o
                0x000000fa                CUNUM_T_Pausesz
 .progmem.data.CUNUM_Power
                0x000000fd        0xb Release\obj\lib\MenuHAL.o
                0x000000fd                CUNUM_Power
 .progmem.data.CUNUM_Powersz
                0x00000108        0x3 Release\obj\lib\MenuHAL.o
                0x00000108                CUNUM_Powersz
 .progmem.data.IncDecVal
                0x0000010b        0x3 Release\obj\lib\MenuHAL.o
                0x0000010b                IncDecVal
 .progmem.data.vPort3
                0x0000010e        0x7 Release\obj\lib\vPorts.o
                0x0000010e                vPort3
 .progmem.data.vPort2
                0x00000115        0xd Release\obj\lib\vPorts.o
                0x00000115                vPort2
 .progmem.data.vPort1
                0x00000122        0x7 Release\obj\lib\vPorts.o
                0x00000122                vPort1
 .progmem.data.vPort0
                0x00000129       0x11 Release\obj\lib\vPorts.o
                0x00000129                vPort0
 .progmem.data.vBits
                0x0000013a        0x8 Release\obj\lib\vPorts.o
                0x0000013a                vBits
 .progmem.data.fmt_3u
                0x00000142        0x5 Release\obj\Menu.o
                0x00000142                fmt_3u
 .progmem.data.TaskProcs
                0x00000147       0x2c Release\obj\Tasks.o
                0x00000147                TaskProcs
                0x00000174                . = ALIGN (0x2)
 *fill*         0x00000173        0x1 
 *(.jumptables)
 *(.jumptables*)
 *(.lowtext)
 *(.lowtext*)
                0x00000174                __ctors_start = .
 *(.ctors)
                0x00000174                __ctors_end = .
                0x00000174                __dtors_start = .
 *(.dtors)
                0x00000174                __dtors_end = .
 SORT(*)(.ctors)
 SORT(*)(.dtors)
 *(.init0)
 .init0         0x00000174        0x0 h:/bin/../lib/gcc/avr/4.9.2/../../../../avr/lib/avr4/crtatmega8.o
                0x00000174                __init
 *(.init0)
 *(.init1)
 *(.init1)
 *(.init2)
 .init2         0x00000174        0xc h:/bin/../lib/gcc/avr/4.9.2/../../../../avr/lib/avr4/crtatmega8.o
 *(.init2)
 *(.init3)
 *(.init3)
 *(.init4)
 .init4         0x00000180       0x16 h:/bin/../lib/gcc/avr/4.9.2/avr4\libgcc.a(_copy_data.o)
                0x00000180                __do_copy_data
 .init4         0x00000196       0x10 h:/bin/../lib/gcc/avr/4.9.2/avr4\libgcc.a(_clear_bss.o)
                0x00000196                __do_clear_bss
 *(.init4)
 *(.init5)
 *(.init5)
 *(.init6)
 *(.init6)
 *(.init7)
 *(.init7)
 *(.init8)
 *(.init8)
 *(.init9)
 .init9         0x000001a6        0x4 h:/bin/../lib/gcc/avr/4.9.2/../../../../avr/lib/avr4/crtatmega8.o
 *(.init9)
 *(.text)
 .text          0x000001aa        0x2 h:/bin/../lib/gcc/avr/4.9.2/../../../../avr/lib/avr4/crtatmega8.o
                0x000001aa                __vector_12
                0x000001aa                __bad_interrupt
                0x000001aa                __vector_6
                0x000001aa                __vector_3
                0x000001aa                __vector_11
                0x000001aa                __vector_13
                0x000001aa                __vector_17
                0x000001aa                __vector_7
                0x000001aa                __vector_5
                0x000001aa                __vector_4
                0x000001aa                __vector_2
                0x000001aa                __vector_15
                0x000001aa                __vector_8
                0x000001aa                __vector_14
                0x000001aa                __vector_10
                0x000001aa                __vector_16
                0x000001aa                __vector_18
 .text          0x000001ac      0xd3a Release\obj\control.o
                0x00000624                __vector_1
                0x00000638                fFaultIgnition
                0x00000646                fBuzSound
                0x00000652                fLed_Fault_On
                0x00000654                fLed_Fault_Off
                0x00000656                fSupply_On
                0x00000658                fSupply_Off
                0x0000065a                fScrew_R_On
                0x0000065c                fScrew_L_On
                0x0000065e                fGrate_On
                0x0000067e                fClean_On
                0x00000680                fTEN_On
                0x00000682                fFan_On
                0x00000684                fPump_On
                0x00000686                fWait_Time_2Next
                0x00000698                fAlarm_On
                0x0000069a                fManual_Off
                0x000006a4                fBunker_Load_TimeOut
                0x000006ea                fTEN_AirOn
                0x000006ec                fTEN_OnTimeLeft
                0x000006ee                fFuelOn
                0x000006f6                f_Go2IGN_UNLOAD
                0x00000720                fRunStop
                0x000007d6                fReUnload_On
                0x000007d8                fUnload_Off
                0x000007da                fGetTempLM335
                0x00000802                fGetTempPt100
                0x0000082a                fGetADC_from_TempLM335
                0x00000850                f_Output
                0x00000874                f_Input
                0x00000876                fCntScrew
                0x00000882                f_FSM_Unload
                0x00000894                f_FSM_CleanScrew
                0x000008a6                f_FSM_Grate
                0x0000094e                f_CheckTempr
                0x0000096e                f_FSM_Alarm
                0x000009c4                fBunker
                0x00000a46                fOffAllRele
                0x00000a52                fControl
                0x00000ea0                fSQGet
                0x00000ed8                fSQInit
 .text          0x00000ee6       0xf8 Release\obj\lib\ADC.o
                0x00000ee6                fADCInit
                0x00000f06                CalcMid
                0x00000f60                fADC_Exe
 .text          0x00000fde      0x11c Release\obj\lib\KBD_3x1.o
                0x00000fde                fKBD_Init
                0x00000fea                fKBD_Scan
                0x00001028                fKBD_Exe
                0x000010ae                fKBD_GetKey
 .text          0x000010fa       0xd0 Release\obj\lib\LedDin.o
                0x000010fa                fDin_Out
                0x00001124                fDin_Init
                0x0000115e                fDin_Fresh
                0x000011be                fB27S
 .text          0x000011ca      0x396 Release\obj\lib\MenuHAL.o
                0x000011ca                fMenuSendMsg
                0x000011d6                fMenuGetHndCtrl
                0x00001224                fMenuInit
                0x00001280                fMenuDraw_szItemMenu
                0x000012a2                fMenuDrawCtrl
                0x0000134a                fMenuDraw
                0x0000134c                fMenuNext
                0x00001358                fMenuPrev
                0x00001364                fMenuSelect
                0x000013a4                fMenuDefProc
                0x00001410                fMenuButtonProc
                0x00001442                fMenuDefEditProc
                0x00001496                fGetIncDecVal
                0x000014ac                fMenuParamIncDec
 .text          0x00001560       0xa0 Release\obj\lib\vPorts.o
                0x00001560                fOut_vPort
                0x000015b4                fIn_vPort
 .text          0x00001600      0x1a6 Release\obj\lib\xitoa.o
                0x00001600                xputc
                0x00001614                xputs
                0x00001622                xitoa
                0x00001746                xprintf
                0x00001760                xsprintf
 .text          0x000017a6       0x94 Release\obj\main.o
                0x000017a6                fProgramm
                0x000017a8                fIdle
                0x000017b8                fFlash
                0x000017ca                __vector_default
                0x000017cc                fCRC16
                0x00001810                fBuzInit
                0x00001818                fBuzOnTime
                0x00001822                fBuzOn
                0x00001828                fBuzOff
                0x0000182e                fBuzer
 .text          0x0000183a      0x24c Release\obj\Menu.o
                0x0000183a                fASCII2_LED
                0x0000187a                fPrint2LED
                0x000018a4                fPrintParams
                0x000018a6                fPrintState
                0x00001948                fMenu
 .text          0x00001a86      0x2a4 Release\obj\RTOSA\RTOSA.o
                0x00001a86                krClearTaskQueue
                0x00001a9e                krClearTimers
                0x00001abe                krProcessTaskQueue
                0x00001b0c                krCallTaskID
                0x00001b20                krSendTask
                0x00001b56                krSetTimer
                0x00001bb4                krTimerRun
                0x00001bd4                krGetTimer
                0x00001bfc                krClrTimer
                0x00001c26                krMemFill
                0x00001c36                krMemCopyR2R
                0x00001c4c                krMemCopyF2R
                0x00001c5e                krRand
                0x00001c72                __vector_9
 .text          0x00001d2a      0x11a Release\obj\Sets.o
                0x00001d2a                f_Write_CRC_Block
                0x00001d92                fSetsRead
                0x00001df8                fSetsWrite
                0x00001e44                . = ALIGN (0x2)
 *(.text.*)
 .text.startup  0x00001e44       0x5a Release\obj\main.o
                0x00001e44                main
 .text.libgcc.div
                0x00001e9e       0x18 h:/bin/../lib/gcc/avr/4.9.2/avr4\libgcc.a(_udivmodqi4.o)
                0x00001e9e                __udivmodqi4
 .text.libgcc.div
                0x00001eb6       0x28 h:/bin/../lib/gcc/avr/4.9.2/avr4\libgcc.a(_udivmodhi4.o)
                0x00001eb6                __udivmodhi4
 .text.libgcc.div
                0x00001ede       0x28 h:/bin/../lib/gcc/avr/4.9.2/avr4\libgcc.a(_divmodsi4.o)
                0x00001ede                __divmodsi4
 .text.libgcc.div
                0x00001f06       0x10 h:/bin/../lib/gcc/avr/4.9.2/avr4\libgcc.a(_negsi2.o)
                0x00001f06                __negsi2
 .text.libgcc.mul
                0x00001f16       0x18 h:/bin/../lib/gcc/avr/4.9.2/avr4\libgcc.a(_umulhisi3.o)
                0x00001f16                __umulhisi3
 .text.libgcc.mul
                0x00001f2e       0x14 h:/bin/../lib/gcc/avr/4.9.2/avr4\libgcc.a(_muluhisi3.o)
                0x00001f2e                __muluhisi3
 .text.libgcc.div
                0x00001f42       0x44 h:/bin/../lib/gcc/avr/4.9.2/avr4\libgcc.a(_udivmodsi4.o)
                0x00001f42                __udivmodsi4
 .text.avr-libc
                0x00001f86       0x20 h:/bin/../lib/gcc/avr/4.9.2/../../../../avr/lib/avr4\libatmega8.a(eerd_block.o)
                0x00001f86                eeprom_read_block
                0x00001f8a                eeprom_read_blraw
 .text.avr-libc
                0x00001fa6       0x1e h:/bin/../lib/gcc/avr/4.9.2/../../../../avr/lib/avr4\libatmega8.a(eeupd_block.o)
                0x00001fa6                eeprom_update_block
 .text.avr-libc
                0x00001fc4       0x22 h:/bin/../lib/gcc/avr/4.9.2/../../../../avr/lib/avr4\libatmega8.a(eeupd_byte.o)
                0x00001fc4                eeprom_update_byte
                0x00001fc6                eeprom_update_r18
                0x00001fe6                . = ALIGN (0x2)
 *(.fini9)
 .fini9         0x00001fe6        0x0 h:/bin/../lib/gcc/avr/4.9.2/avr4\libgcc.a(_exit.o)
                0x00001fe6                _exit
                0x00001fe6                exit
 *(.fini9)
 *(.fini8)
 *(.fini8)
 *(.fini7)
 *(.fini7)
 *(.fini6)
 *(.fini6)
 *(.fini5)
 *(.fini5)
 *(.fini4)
 *(.fini4)
 *(.fini3)
 *(.fini3)
 *(.fini2)
 *(.fini2)
 *(.fini1)
 *(.fini1)
 *(.fini0)
 .fini0         0x00001fe6        0x4 h:/bin/../lib/gcc/avr/4.9.2/avr4\libgcc.a(_exit.o)
 *(.fini0)
                0x00001fea                _etext = .

.data           0x00800060       0x14 load address 0x00001fea
                0x00800060                PROVIDE (__data_start, .)
 *(.data)
 *(.data*)
 .data.FSM_Grate.2896
                0x00800060        0x2 Release\obj\control.o
 .data.FSM_Alarm.2888
                0x00800062        0x2 Release\obj\control.o
 .data.FSM_CleanScrew.2872
                0x00800064        0x2 Release\obj\control.o
 .data.vDinam   0x00800066        0x5 Release\obj\lib\LedDin.o
                0x00800066                vDinam
 .data.vPorts   0x0080006b        0x8 Release\obj\lib\vPorts.o
                0x0080006b                vPorts
 *(.rodata)
 *(.rodata*)
 *(.gnu.linkonce.d*)
                0x00800074                . = ALIGN (0x2)
 *fill*         0x00800073        0x1 
                0x00800074                _edata = .
                0x00800074                PROVIDE (__data_end, .)

.bss            0x00800074      0x18f
                0x00800074                PROVIDE (__bss_start, .)
 *(.bss)
 .bss           0x00800074        0x2 Release\obj\lib\xitoa.o
                0x00800074                xfunc_out
 *(.bss*)
 .bss.vCW_TimeOut.2874
                0x00800076        0x4 Release\obj\control.o
 .bss.v_Pause_Timer.2875
                0x0080007a        0x4 Release\obj\control.o
 .bss.vCCW_Time.2873
                0x0080007e        0x4 Release\obj\control.o
 .bss.N_Unload_Old.2870
                0x00800082        0x1 Release\obj\control.o
 .bss.cntClean.2871
                0x00800083        0x1 Release\obj\control.o
 .bss.N_Unload_Old.2858
                0x00800084        0x1 Release\obj\control.o
 .bss.vUnloadTimeOut.2857
                0x00800085        0x4 Release\obj\control.o
 .bss.FSM_Unload.2859
                0x00800089        0x2 Release\obj\control.o
 .bss.tmpGrateCnt100s.2737
                0x0080008b        0x1 Release\obj\control.o
 .bss.CurCanal.2693
                0x0080008c        0x1 Release\obj\lib\ADC.o
 .bss.v_ADC     0x0080008d        0x6 Release\obj\lib\ADC.o
                0x0080008d                v_ADC
 .bss.CntDN.2790
                0x00800093        0x1 Release\obj\lib\MenuHAL.o
 .bss.CntUP.2789
                0x00800094        0x1 Release\obj\lib\MenuHAL.o
 .bss.vStateNext
                0x00800095        0x2 Release\obj\main.o
                0x00800095                vStateNext
 .bss.vState    0x00800097        0x2 Release\obj\main.o
                0x00800097                vState
 *(COMMON)
 COMMON         0x00800099       0x5e Release\obj\control.o
                0x00800099                v_OLed
                0x0080009a                TimerTaskID
                0x0080009b                vSQ_State
                0x0080009c                TaskQueue
                0x008000a4                pszError
                0x008000a6                v_CntUnld
                0x008000a7                pszState
                0x008000a9                v_ORele_Manual
                0x008000aa                SQ1_Off_TaskID
                0x008000ab                MenuStk
                0x008000b7                SQ1_On_TaskID
                0x008000b8                TimersPool
                0x008000d8                v_Param
                0x008000df                v_Time
                0x008000e3                MenuSP
                0x008000e4                rCRC8
                0x008000e5                v_ORele
                0x008000e6                szFaultBuf
                0x008000f6                v_OLed_Manual
 COMMON         0x008000f7       0xa8 Release\obj\lib\ADC.o
                0x008000f7                Buff_ADC6
                0x0080010c                Buff_ADC5
                0x00800121                Buff_ADC4
                0x00800136                Buff_ADC0
                0x0080014b                Buff_ADC2
                0x00800160                Buff_ADC1
                0x00800175                Buff_ADC3
                0x0080018a                Buff_ADC7
 COMMON         0x0080019f        0x5 Release\obj\lib\KBD_3x1.o
                0x0080019f                v_KBD
 COMMON         0x008001a4        0x4 Release\obj\lib\LedDin.o
                0x008001a4                vDinOff
                0x008001a5                vLED_CA_CC
                0x008001a6                pfDin_Out
 COMMON         0x008001a8       0x11 Release\obj\lib\MenuHAL.o
                0x008001a8                v_LED3Buf
                0x008001b0                flgTimerEdit
                0x008001b1                v_Menu
 COMMON         0x008001b9       0x13 Release\obj\main.o
                0x008001b9                vInType
                0x008001bb                v_cnt_FultTS2_Unload
                0x008001bc                vRegParam
                0x008001c6                vStateNextTime
                0x008001c8                vStateForWait
                0x008001ca                v_N_Unload
                0x008001cb                vFlash
 COMMON         0x008001cc       0x10 Release\obj\Menu.o
                0x008001cc                szParamVal_Buf
                0x008001d4                szParamName_Buf
 COMMON         0x008001dc        0x9 Release\obj\RTOSA\RTOSA.o
                0x008001dc                r_CntTimers
                0x008001dd                T0_Reload
                0x008001de                r_RND
                0x008001df                r_TaskS
                0x008001e0                r_CntTask
                0x008001e1                vOS_Tick
 COMMON         0x008001e5       0x1e Release\obj\Sets.o
                0x008001e5                vSets
                0x008001f7                vSets_com
                0x00800203                PROVIDE (__bss_end, .)
                0x00001fea                __data_load_start = LOADADDR (.data)
                0x00001ffe                __data_load_end = (__data_load_start + SIZEOF (.data))

.noinit         0x00800203        0x0
                0x00800203                PROVIDE (__noinit_start, .)
 *(.noinit*)
                0x00800203                PROVIDE (__noinit_end, .)
                0x00800203                _end = .
                0x00800203                PROVIDE (__heap_start, .)

.eeprom         0x00810000       0x1e
 *(.eeprom*)
 .eeprom        0x00810000       0x1e Release\obj\Sets.o
                0x00810000                evSets_Usr1
                0x00810012                evSets_com
                0x0081001e                __eeprom_end = .

.fuse           0x00820000        0x2
 *(.fuse)
 .fuse          0x00820000        0x2 Release\obj\fuse_m8.o
                0x00820000                __fuse
 *(.lfuse)
 *(.hfuse)
 *(.efuse)

.lock           0x00830000        0x1
 *(.lock*)
 .lock          0x00830000        0x1 Release\obj\fuse_m8.o
                0x00830000                __lock

.signature      0x00840000        0x3
 *(.signature*)
 .signature     0x00840000        0x3 Release\obj\fuse_m8.o
                0x00840000                __signature

.user_signatures
 *(.user_signatures*)

.stab
 *(.stab)

.stabstr
 *(.stabstr)

.stab.excl
 *(.stab.excl)

.stab.exclstr
 *(.stab.exclstr)

.stab.index
 *(.stab.index)

.stab.indexstr
 *(.stab.indexstr)

.comment        0x00000000       0x30
 *(.comment)
 .comment       0x00000000       0x30 Release\obj\control.o
                                 0x31 (size before relaxing)
 .comment       0x00000030       0x31 Release\obj\fuse_m8.o
 .comment       0x00000030       0x31 Release\obj\lib\ADC.o
 .comment       0x00000030       0x31 Release\obj\lib\KBD_3x1.o
 .comment       0x00000030       0x31 Release\obj\lib\LedDin.o
 .comment       0x00000030       0x31 Release\obj\lib\MenuHAL.o
 .comment       0x00000030       0x31 Release\obj\lib\vPorts.o
 .comment       0x00000030       0x31 Release\obj\main.o
 .comment       0x00000030       0x31 Release\obj\Menu.o
 .comment       0x00000030       0x31 Release\obj\RTOSA\RTOSA.o
 .comment       0x00000030       0x31 Release\obj\Sets.o
 .comment       0x00000030       0x31 Release\obj\Tasks.o

.note.gnu.avr.deviceinfo
                0x00000000       0x3c
 .note.gnu.avr.deviceinfo
                0x00000000       0x3c h:/bin/../lib/gcc/avr/4.9.2/../../../../avr/lib/avr4/crtatmega8.o

.note.gnu.build-id
 *(.note.gnu.build-id)

.debug
 *(.debug)

.line
 *(.line)

.debug_srcinfo
 *(.debug_srcinfo)

.debug_sfnames
 *(.debug_sfnames)

.debug_aranges  0x00000000      0x198
 *(.debug_aranges)
 .debug_aranges
                0x00000000       0x20 Release\obj\control.o
 .debug_aranges
                0x00000020       0x18 Release\obj\fuse_m8.o
 .debug_aranges
                0x00000038       0x20 Release\obj\lib\ADC.o
 .debug_aranges
                0x00000058       0x20 Release\obj\lib\KBD_3x1.o
 .debug_aranges
                0x00000078       0x20 Release\obj\lib\LedDin.o
 .debug_aranges
                0x00000098       0x20 Release\obj\lib\MenuHAL.o
 .debug_aranges
                0x000000b8       0x20 Release\obj\lib\vPorts.o
 .debug_aranges
                0x000000d8       0x20 Release\obj\lib\xitoa.o
 .debug_aranges
                0x000000f8       0x28 Release\obj\main.o
 .debug_aranges
                0x00000120       0x20 Release\obj\Menu.o
 .debug_aranges
                0x00000140       0x20 Release\obj\RTOSA\RTOSA.o
 .debug_aranges
                0x00000160       0x20 Release\obj\Sets.o
 .debug_aranges
                0x00000180       0x18 Release\obj\Tasks.o

.debug_pubnames
 *(.debug_pubnames)

.debug_info     0x00000000     0x757f
 *(.debug_info .gnu.linkonce.wi.*)
 .debug_info    0x00000000     0x1b54 Release\obj\control.o
 .debug_info    0x00001b54       0xd8 Release\obj\fuse_m8.o
 .debug_info    0x00001c2c      0x6bd Release\obj\lib\ADC.o
 .debug_info    0x000022e9      0x5e9 Release\obj\lib\KBD_3x1.o
 .debug_info    0x000028d2      0x68d Release\obj\lib\LedDin.o
 .debug_info    0x00002f5f      0xf7d Release\obj\lib\MenuHAL.o
 .debug_info    0x00003edc      0x2f8 Release\obj\lib\vPorts.o
 .debug_info    0x000041d4       0x71 Release\obj\lib\xitoa.o
 .debug_info    0x00004245      0xc73 Release\obj\main.o
 .debug_info    0x00004eb8      0xc59 Release\obj\Menu.o
 .debug_info    0x00005b11      0xb0a Release\obj\RTOSA\RTOSA.o
 .debug_info    0x0000661b      0xaf5 Release\obj\Sets.o
 .debug_info    0x00007110      0x46f Release\obj\Tasks.o

.debug_abbrev   0x00000000     0x1b94
 *(.debug_abbrev)
 .debug_abbrev  0x00000000      0x422 Release\obj\control.o
 .debug_abbrev  0x00000422       0x88 Release\obj\fuse_m8.o
 .debug_abbrev  0x000004aa      0x1ce Release\obj\lib\ADC.o
 .debug_abbrev  0x00000678      0x1d7 Release\obj\lib\KBD_3x1.o
 .debug_abbrev  0x0000084f      0x203 Release\obj\lib\LedDin.o
 .debug_abbrev  0x00000a52      0x301 Release\obj\lib\MenuHAL.o
 .debug_abbrev  0x00000d53      0x128 Release\obj\lib\vPorts.o
 .debug_abbrev  0x00000e7b       0x14 Release\obj\lib\xitoa.o
 .debug_abbrev  0x00000e8f      0x34f Release\obj\main.o
 .debug_abbrev  0x000011de      0x2e3 Release\obj\Menu.o
 .debug_abbrev  0x000014c1      0x34b Release\obj\RTOSA\RTOSA.o
 .debug_abbrev  0x0000180c      0x28e Release\obj\Sets.o
 .debug_abbrev  0x00001a9a       0xfa Release\obj\Tasks.o

.debug_line     0x00000000     0x1530
 *(.debug_line .debug_line.* .debug_line_end)
 .debug_line    0x00000000      0x2e8 Release\obj\control.o
 .debug_line    0x000002e8       0x53 Release\obj\fuse_m8.o
 .debug_line    0x0000033b      0x12e Release\obj\lib\ADC.o
 .debug_line    0x00000469      0x210 Release\obj\lib\KBD_3x1.o
 .debug_line    0x00000679      0x1c5 Release\obj\lib\LedDin.o
 .debug_line    0x0000083e      0x290 Release\obj\lib\MenuHAL.o
 .debug_line    0x00000ace       0xd2 Release\obj\lib\vPorts.o
 .debug_line    0x00000ba0      0x109 Release\obj\lib\xitoa.o
 .debug_line    0x00000ca9      0x1f0 Release\obj\main.o
 .debug_line    0x00000e99      0x19a Release\obj\Menu.o
 .debug_line    0x00001033      0x264 Release\obj\RTOSA\RTOSA.o
 .debug_line    0x00001297      0x1de Release\obj\Sets.o
 .debug_line    0x00001475       0xbb Release\obj\Tasks.o

.debug_frame    0x00000000      0x8ec
 *(.debug_frame)
 .debug_frame   0x00000000      0x300 Release\obj\control.o
 .debug_frame   0x00000300       0x60 Release\obj\lib\ADC.o
 .debug_frame   0x00000360       0x5c Release\obj\lib\KBD_3x1.o
 .debug_frame   0x000003bc       0x60 Release\obj\lib\LedDin.o
 .debug_frame   0x0000041c      0x148 Release\obj\lib\MenuHAL.o
 .debug_frame   0x00000564       0x40 Release\obj\lib\vPorts.o
 .debug_frame   0x000005a4       0xc4 Release\obj\main.o
 .debug_frame   0x00000668       0xa4 Release\obj\Menu.o
 .debug_frame   0x0000070c      0x14c Release\obj\RTOSA\RTOSA.o
 .debug_frame   0x00000858       0x94 Release\obj\Sets.o

.debug_str      0x00000000     0x1292
 *(.debug_str)
 .debug_str     0x00000000      0x9a8 Release\obj\control.o
                                0xae2 (size before relaxing)
 .debug_str     0x000009a8       0x32 Release\obj\fuse_m8.o
                                0x13e (size before relaxing)
 .debug_str     0x000009da       0xe4 Release\obj\lib\ADC.o
                                0x427 (size before relaxing)
 .debug_str     0x00000abe       0xb4 Release\obj\lib\KBD_3x1.o
                                0x3f1 (size before relaxing)
 .debug_str     0x00000b72       0x6c Release\obj\lib\LedDin.o
                                0x3da (size before relaxing)
 .debug_str     0x00000bde      0x343 Release\obj\lib\MenuHAL.o
                                0x899 (size before relaxing)
 .debug_str     0x00000f21       0x69 Release\obj\lib\vPorts.o
                                0x1cf (size before relaxing)
 .debug_str     0x00000f8a      0x141 Release\obj\main.o
                                0x6f2 (size before relaxing)
 .debug_str     0x000010cb       0x5e Release\obj\Menu.o
                                0x6e6 (size before relaxing)
 .debug_str     0x00001129       0xc6 Release\obj\RTOSA\RTOSA.o
                                0x47b (size before relaxing)
 .debug_str     0x000011ef       0x9b Release\obj\Sets.o
                                0x50f (size before relaxing)
 .debug_str     0x0000128a        0x8 Release\obj\Tasks.o
                                0x33e (size before relaxing)

.debug_loc      0x00000000     0x1c8b
 *(.debug_loc)
 .debug_loc     0x00000000      0x574 Release\obj\control.o
 .debug_loc     0x00000574       0xe1 Release\obj\lib\ADC.o
 .debug_loc     0x00000655       0xd0 Release\obj\lib\KBD_3x1.o
 .debug_loc     0x00000725       0xf6 Release\obj\lib\LedDin.o
 .debug_loc     0x0000081b      0x352 Release\obj\lib\MenuHAL.o
 .debug_loc     0x00000b6d      0x273 Release\obj\lib\vPorts.o
 .debug_loc     0x00000de0      0x14e Release\obj\main.o
 .debug_loc     0x00000f2e      0x369 Release\obj\Menu.o
 .debug_loc     0x00001297      0x6b1 Release\obj\RTOSA\RTOSA.o
 .debug_loc     0x00001948      0x343 Release\obj\Sets.o

.debug_macinfo
 *(.debug_macinfo)

.debug_weaknames
 *(.debug_weaknames)

.debug_funcnames
 *(.debug_funcnames)

.debug_typenames
 *(.debug_typenames)

.debug_varnames
 *(.debug_varnames)

.debug_pubtypes
 *(.debug_pubtypes)

.debug_ranges   0x00000000       0x68
 *(.debug_ranges)
 .debug_ranges  0x00000000       0x38 Release\obj\lib\MenuHAL.o
 .debug_ranges  0x00000038       0x18 Release\obj\main.o
 .debug_ranges  0x00000050       0x18 Release\obj\RTOSA\RTOSA.o

.debug_macro
 *(.debug_macro)
OUTPUT(Release\bin\PTuCv2.elf elf32-avr)
LOAD linker stubs

Cross Reference Table

Symbol                                            File
Buff_ADC0                                         Release\obj\lib\ADC.o
Buff_ADC1                                         Release\obj\lib\ADC.o
Buff_ADC2                                         Release\obj\lib\ADC.o
Buff_ADC3                                         Release\obj\lib\ADC.o
Buff_ADC4                                         Release\obj\lib\ADC.o
Buff_ADC5                                         Release\obj\lib\ADC.o
Buff_ADC6                                         Release\obj\lib\ADC.o
Buff_ADC7                                         Release\obj\lib\ADC.o
CB_RunStop                                        Release\obj\lib\MenuHAL.o
CB_RunStopsz                                      Release\obj\lib\MenuHAL.o
CUNUM_AutoRun                                     Release\obj\lib\MenuHAL.o
CUNUM_AutoRunsz                                   Release\obj\lib\MenuHAL.o
CUNUM_N_Ignition                                  Release\obj\lib\MenuHAL.o
CUNUM_N_Ignitionsz                                Release\obj\lib\MenuHAL.o
CUNUM_N_Unload                                    Release\obj\lib\MenuHAL.o
CUNUM_N_Unloadsz                                  Release\obj\lib\MenuHAL.o
CUNUM_Power                                       Release\obj\lib\MenuHAL.o
CUNUM_Powersz                                     Release\obj\lib\MenuHAL.o
CUNUM_T_Ignition                                  Release\obj\lib\MenuHAL.o
CUNUM_T_Ignitionsz                                Release\obj\lib\MenuHAL.o
CUNUM_T_Pause                                     Release\obj\lib\MenuHAL.o
CUNUM_T_Pausesz                                   Release\obj\lib\MenuHAL.o
CUNUM_T_TEN                                       Release\obj\lib\MenuHAL.o
CUNUM_T_TENsz                                     Release\obj\lib\MenuHAL.o
CUNUM_Temp1                                       Release\obj\lib\MenuHAL.o
CUNUM_Temp1sz                                     Release\obj\lib\MenuHAL.o
CalcMid                                           Release\obj\lib\ADC.o
IncDecVal                                         Release\obj\lib\MenuHAL.o
MenuSP                                            Release\obj\Tasks.o
                                                  Release\obj\Sets.o
                                                  Release\obj\RTOSA\RTOSA.o
                                                  Release\obj\RTOSA\Debug.o
                                                  Release\obj\Menu.o
                                                  Release\obj\main.o
                                                  Release\obj\lib\MenuHAL.o
                                                  Release\obj\lib\LedDin.o
                                                  Release\obj\lib\KBD_3x1.o
                                                  Release\obj\lib\ADC.o
                                                  Release\obj\control.o
MenuStk                                           Release\obj\Tasks.o
                                                  Release\obj\Sets.o
                                                  Release\obj\RTOSA\RTOSA.o
                                                  Release\obj\RTOSA\Debug.o
                                                  Release\obj\Menu.o
                                                  Release\obj\main.o
                                                  Release\obj\lib\MenuHAL.o
                                                  Release\obj\lib\LedDin.o
                                                  Release\obj\lib\KBD_3x1.o
                                                  Release\obj\lib\ADC.o
                                                  Release\obj\control.o
Menu_Main                                         Release\obj\lib\MenuHAL.o
SQ1_Off_TaskID                                    Release\obj\control.o
SQ1_On_TaskID                                     Release\obj\control.o
StrLED_Brn                                        Release\obj\lib\MenuHAL.o
StrLED_StP                                        Release\obj\lib\MenuHAL.o
T0_Reload                                         Release\obj\RTOSA\RTOSA.o
                                                  Release\obj\main.o
Tab_7Seg                                          Release\obj\lib\LedDin.o
TaskProcs                                         Release\obj\Tasks.o
                                                  Release\obj\RTOSA\RTOSA.o
TaskQueue                                         Release\obj\Tasks.o
                                                  Release\obj\Sets.o
                                                  Release\obj\RTOSA\RTOSA.o
                                                  Release\obj\RTOSA\Debug.o
                                                  Release\obj\Menu.o
                                                  Release\obj\main.o
                                                  Release\obj\lib\MenuHAL.o
                                                  Release\obj\lib\LedDin.o
                                                  Release\obj\lib\KBD_3x1.o
                                                  Release\obj\lib\ADC.o
                                                  Release\obj\control.o
TimerTaskID                                       Release\obj\control.o
                                                  Release\obj\Menu.o
TimersPool                                        Release\obj\Tasks.o
                                                  Release\obj\Sets.o
                                                  Release\obj\RTOSA\RTOSA.o
                                                  Release\obj\RTOSA\Debug.o
                                                  Release\obj\Menu.o
                                                  Release\obj\main.o
                                                  Release\obj\lib\MenuHAL.o
                                                  Release\obj\lib\LedDin.o
                                                  Release\obj\lib\KBD_3x1.o
                                                  Release\obj\lib\ADC.o
                                                  Release\obj\control.o
__bad_interrupt                                   h:/bin/../lib/gcc/avr/4.9.2/../../../../avr/lib/avr4/crtatmega8.o
__bss_end                                         h:/bin/../lib/gcc/avr/4.9.2/avr4\libgcc.a(_clear_bss.o)
__bss_start                                       h:/bin/../lib/gcc/avr/4.9.2/avr4\libgcc.a(_clear_bss.o)
__data_end                                        h:/bin/../lib/gcc/avr/4.9.2/avr4\libgcc.a(_copy_data.o)
__data_load_start                                 h:/bin/../lib/gcc/avr/4.9.2/avr4\libgcc.a(_copy_data.o)
__data_start                                      h:/bin/../lib/gcc/avr/4.9.2/avr4\libgcc.a(_copy_data.o)
__divmodsi4                                       h:/bin/../lib/gcc/avr/4.9.2/avr4\libgcc.a(_divmodsi4.o)
                                                  Release\obj\control.o
__do_clear_bss                                    h:/bin/../lib/gcc/avr/4.9.2/avr4\libgcc.a(_clear_bss.o)
                                                  Release\obj\Tasks.o
                                                  Release\obj\Sets.o
                                                  Release\obj\RTOSA\RTOSA.o
                                                  Release\obj\RTOSA\Debug.o
                                                  Release\obj\Menu.o
                                                  Release\obj\main.o
                                                  Release\obj\lib\MenuHAL.o
                                                  Release\obj\lib\LedDin.o
                                                  Release\obj\lib\KBD_3x1.o
                                                  Release\obj\lib\ADC.o
                                                  Release\obj\control.o
__do_copy_data                                    h:/bin/../lib/gcc/avr/4.9.2/avr4\libgcc.a(_copy_data.o)
                                                  Release\obj\lib\vPorts.o
                                                  Release\obj\lib\LedDin.o
                                                  Release\obj\control.o
__fuse                                            Release\obj\fuse_m8.o
__heap_end                                        h:/bin/../lib/gcc/avr/4.9.2/../../../../avr/lib/avr4/crtatmega8.o
__init                                            h:/bin/../lib/gcc/avr/4.9.2/../../../../avr/lib/avr4/crtatmega8.o
__lock                                            Release\obj\fuse_m8.o
__muluhisi3                                       h:/bin/../lib/gcc/avr/4.9.2/avr4\libgcc.a(_muluhisi3.o)
                                                  Release\obj\control.o
__negsi2                                          h:/bin/../lib/gcc/avr/4.9.2/avr4\libgcc.a(_negsi2.o)
                                                  h:/bin/../lib/gcc/avr/4.9.2/avr4\libgcc.a(_divmodsi4.o)
__signature                                       Release\obj\fuse_m8.o
__stack                                           h:/bin/../lib/gcc/avr/4.9.2/../../../../avr/lib/avr4/crtatmega8.o
__udivmodhi4                                      h:/bin/../lib/gcc/avr/4.9.2/avr4\libgcc.a(_udivmodhi4.o)
                                                  Release\obj\Menu.o
                                                  Release\obj\control.o
__udivmodqi4                                      h:/bin/../lib/gcc/avr/4.9.2/avr4\libgcc.a(_udivmodqi4.o)
                                                  Release\obj\lib\MenuHAL.o
                                                  Release\obj\lib\bcd.o
__udivmodsi4                                      h:/bin/../lib/gcc/avr/4.9.2/avr4\libgcc.a(_udivmodsi4.o)
                                                  h:/bin/../lib/gcc/avr/4.9.2/avr4\libgcc.a(_divmodsi4.o)
__umulhisi3                                       h:/bin/../lib/gcc/avr/4.9.2/avr4\libgcc.a(_umulhisi3.o)
                                                  h:/bin/../lib/gcc/avr/4.9.2/avr4\libgcc.a(_muluhisi3.o)
                                                  Release\obj\control.o
__vector_1                                        Release\obj\control.o
                                                  h:/bin/../lib/gcc/avr/4.9.2/../../../../avr/lib/avr4/crtatmega8.o
__vector_10                                       h:/bin/../lib/gcc/avr/4.9.2/../../../../avr/lib/avr4/crtatmega8.o
__vector_11                                       h:/bin/../lib/gcc/avr/4.9.2/../../../../avr/lib/avr4/crtatmega8.o
__vector_12                                       h:/bin/../lib/gcc/avr/4.9.2/../../../../avr/lib/avr4/crtatmega8.o
__vector_13                                       h:/bin/../lib/gcc/avr/4.9.2/../../../../avr/lib/avr4/crtatmega8.o
__vector_14                                       h:/bin/../lib/gcc/avr/4.9.2/../../../../avr/lib/avr4/crtatmega8.o
__vector_15                                       h:/bin/../lib/gcc/avr/4.9.2/../../../../avr/lib/avr4/crtatmega8.o
__vector_16                                       h:/bin/../lib/gcc/avr/4.9.2/../../../../avr/lib/avr4/crtatmega8.o
__vector_17                                       h:/bin/../lib/gcc/avr/4.9.2/../../../../avr/lib/avr4/crtatmega8.o
__vector_18                                       h:/bin/../lib/gcc/avr/4.9.2/../../../../avr/lib/avr4/crtatmega8.o
__vector_2                                        h:/bin/../lib/gcc/avr/4.9.2/../../../../avr/lib/avr4/crtatmega8.o
__vector_3                                        h:/bin/../lib/gcc/avr/4.9.2/../../../../avr/lib/avr4/crtatmega8.o
__vector_4                                        h:/bin/../lib/gcc/avr/4.9.2/../../../../avr/lib/avr4/crtatmega8.o
__vector_5                                        h:/bin/../lib/gcc/avr/4.9.2/../../../../avr/lib/avr4/crtatmega8.o
__vector_6                                        h:/bin/../lib/gcc/avr/4.9.2/../../../../avr/lib/avr4/crtatmega8.o
__vector_7                                        h:/bin/../lib/gcc/avr/4.9.2/../../../../avr/lib/avr4/crtatmega8.o
__vector_8                                        h:/bin/../lib/gcc/avr/4.9.2/../../../../avr/lib/avr4/crtatmega8.o
__vector_9                                        Release\obj\RTOSA\RTOSA.o
                                                  h:/bin/../lib/gcc/avr/4.9.2/../../../../avr/lib/avr4/crtatmega8.o
__vector_default                                  Release\obj\main.o
                                                  h:/bin/../lib/gcc/avr/4.9.2/../../../../avr/lib/avr4/crtatmega8.o
__vectors                                         h:/bin/../lib/gcc/avr/4.9.2/../../../../avr/lib/avr4/crtatmega8.o
_bcd2bin                                          Release\obj\lib\bcd.o
_bin2bcd                                          Release\obj\lib\bcd.o
_exit                                             h:/bin/../lib/gcc/avr/4.9.2/avr4\libgcc.a(_exit.o)
cReleLedTest                                      Release\obj\control.o
eeprom_read_block                                 h:/bin/../lib/gcc/avr/4.9.2/../../../../avr/lib/avr4\libatmega8.a(eerd_block.o)
                                                  Release\obj\Sets.o
eeprom_read_blraw                                 h:/bin/../lib/gcc/avr/4.9.2/../../../../avr/lib/avr4\libatmega8.a(eerd_block.o)
eeprom_update_block                               h:/bin/../lib/gcc/avr/4.9.2/../../../../avr/lib/avr4\libatmega8.a(eeupd_block.o)
                                                  Release\obj\Sets.o
eeprom_update_byte                                h:/bin/../lib/gcc/avr/4.9.2/../../../../avr/lib/avr4\libatmega8.a(eeupd_byte.o)
eeprom_update_r18                                 h:/bin/../lib/gcc/avr/4.9.2/../../../../avr/lib/avr4\libatmega8.a(eeupd_byte.o)
                                                  h:/bin/../lib/gcc/avr/4.9.2/../../../../avr/lib/avr4\libatmega8.a(eeupd_block.o)
evSets_Usr1                                       Release\obj\Sets.o
evSets_com                                        Release\obj\Sets.o
exit                                              h:/bin/../lib/gcc/avr/4.9.2/avr4\libgcc.a(_exit.o)
                                                  h:/bin/../lib/gcc/avr/4.9.2/../../../../avr/lib/avr4/crtatmega8.o
fADCInit                                          Release\obj\lib\ADC.o
                                                  Release\obj\main.o
fADC_Exe                                          Release\obj\lib\ADC.o
                                                  Release\obj\main.o
fASCII2_LED                                       Release\obj\Menu.o
                                                  Release\obj\lib\MenuHAL.o
fAlarm_On                                         Release\obj\control.o
fB27S                                             Release\obj\lib\LedDin.o
                                                  Release\obj\Menu.o
fBunker                                           Release\obj\control.o
fBunker_Load_TimeOut                              Release\obj\control.o
                                                  Release\obj\Tasks.o
fBuzInit                                          Release\obj\main.o
fBuzOff                                           Release\obj\main.o
                                                  Release\obj\Tasks.o
                                                  Release\obj\control.o
fBuzOn                                            Release\obj\main.o
                                                  Release\obj\Tasks.o
                                                  Release\obj\control.o
fBuzOnTime                                        Release\obj\main.o
                                                  Release\obj\lib\KBD_3x1.o
fBuzSound                                         Release\obj\control.o
fBuzer                                            Release\obj\main.o
fCRC16                                            Release\obj\main.o
                                                  Release\obj\Sets.o
fClean_On                                         Release\obj\control.o
fCntScrew                                         Release\obj\control.o
                                                  Release\obj\Tasks.o
fControl                                          Release\obj\control.o
                                                  Release\obj\Menu.o
fDin_Fresh                                        Release\obj\lib\LedDin.o
                                                  Release\obj\main.o
fDin_Init                                         Release\obj\lib\LedDin.o
                                                  Release\obj\main.o
fDin_Out                                          Release\obj\lib\LedDin.o
fFan_On                                           Release\obj\control.o
fFaultIgnition                                    Release\obj\control.o
fFlash                                            Release\obj\main.o
                                                  Release\obj\Tasks.o
fFuelOn                                           Release\obj\control.o
fGetADC_from_TempLM335                            Release\obj\control.o
                                                  Release\obj\lib\MenuHAL.o
fGetIncDecVal                                     Release\obj\lib\MenuHAL.o
fGetTempLM335                                     Release\obj\control.o
fGetTempPt100                                     Release\obj\control.o
fGrate_On                                         Release\obj\control.o
                                                  Release\obj\Tasks.o
fIdle                                             Release\obj\main.o
                                                  Release\obj\Tasks.o
fIn_vPort                                         Release\obj\lib\vPorts.o
fKBD_Exe                                          Release\obj\lib\KBD_3x1.o
                                                  Release\obj\lib\LedDin.o
fKBD_GetKey                                       Release\obj\lib\KBD_3x1.o
                                                  Release\obj\Menu.o
fKBD_Init                                         Release\obj\lib\KBD_3x1.o
                                                  Release\obj\main.o
fKBD_Scan                                         Release\obj\lib\KBD_3x1.o
fLed_Fault_Off                                    Release\obj\control.o
fLed_Fault_On                                     Release\obj\control.o
fManual_Off                                       Release\obj\control.o
fMenu                                             Release\obj\Menu.o
                                                  Release\obj\Tasks.o
                                                  Release\obj\main.o
fMenuButtonProc                                   Release\obj\lib\MenuHAL.o
                                                  Release\obj\Tasks.o
fMenuDefEditProc                                  Release\obj\lib\MenuHAL.o
                                                  Release\obj\Tasks.o
fMenuDefProc                                      Release\obj\lib\MenuHAL.o
                                                  Release\obj\Tasks.o
fMenuDraw                                         Release\obj\lib\MenuHAL.o
                                                  Release\obj\Tasks.o
fMenuDrawCtrl                                     Release\obj\lib\MenuHAL.o
fMenuDraw_szItemMenu                              Release\obj\lib\MenuHAL.o
fMenuGetHndCtrl                                   Release\obj\lib\MenuHAL.o
fMenuInit                                         Release\obj\lib\MenuHAL.o
                                                  Release\obj\Tasks.o
                                                  Release\obj\main.o
                                                  Release\obj\control.o
fMenuNext                                         Release\obj\lib\MenuHAL.o
                                                  Release\obj\Tasks.o
fMenuParamIncDec                                  Release\obj\lib\MenuHAL.o
                                                  Release\obj\Tasks.o
fMenuPrev                                         Release\obj\lib\MenuHAL.o
                                                  Release\obj\Tasks.o
fMenuSelect                                       Release\obj\lib\MenuHAL.o
                                                  Release\obj\Tasks.o
fMenuSendMsg                                      Release\obj\lib\MenuHAL.o
                                                  Release\obj\Menu.o
fOffAllRele                                       Release\obj\control.o
fOut_vPort                                        Release\obj\lib\vPorts.o
                                                  Release\obj\main.o
                                                  Release\obj\lib\LedDin.o
                                                  Release\obj\control.o
fPrint2LED                                        Release\obj\Menu.o
fPrintParams                                      Release\obj\Menu.o
fPrintState                                       Release\obj\Menu.o
fProgramm                                         Release\obj\main.o
fPump_On                                          Release\obj\control.o
fReUnload_On                                      Release\obj\control.o
                                                  Release\obj\Tasks.o
fRunStop                                          Release\obj\control.o
                                                  Release\obj\Tasks.o
fSQGet                                            Release\obj\control.o
                                                  Release\obj\Tasks.o
fSQInit                                           Release\obj\control.o
                                                  Release\obj\main.o
fScrew_L_On                                       Release\obj\control.o
fScrew_R_On                                       Release\obj\control.o
fSetsRead                                         Release\obj\Sets.o
                                                  Release\obj\lib\MenuHAL.o
fSetsWrite                                        Release\obj\Sets.o
                                                  Release\obj\lib\MenuHAL.o
fSupply_Off                                       Release\obj\control.o
fSupply_On                                        Release\obj\control.o
fTEN_AirOn                                        Release\obj\control.o
fTEN_On                                           Release\obj\control.o
fTEN_OnTimeLeft                                   Release\obj\control.o
                                                  Release\obj\Tasks.o
fUnload_Off                                       Release\obj\control.o
fWait_Time_2Next                                  Release\obj\control.o
                                                  Release\obj\Tasks.o
f_CheckTempr                                      Release\obj\control.o
f_FSM_Alarm                                       Release\obj\control.o
f_FSM_CleanScrew                                  Release\obj\control.o
f_FSM_Grate                                       Release\obj\control.o
f_FSM_Unload                                      Release\obj\control.o
f_Go2IGN_UNLOAD                                   Release\obj\control.o
f_Input                                           Release\obj\control.o
f_Output                                          Release\obj\control.o
f_Write_CRC_Block                                 Release\obj\Sets.o
flgTimerEdit                                      Release\obj\lib\MenuHAL.o
fmt_3u                                            Release\obj\Menu.o
                                                  Release\obj\lib\MenuHAL.o
krCallTaskID                                      Release\obj\RTOSA\RTOSA.o
                                                  Release\obj\Menu.o
krClearTaskQueue                                  Release\obj\RTOSA\RTOSA.o
                                                  Release\obj\main.o
krClearTimers                                     Release\obj\RTOSA\RTOSA.o
                                                  Release\obj\main.o
krClrTimer                                        Release\obj\RTOSA\RTOSA.o
                                                  Release\obj\Menu.o
                                                  Release\obj\control.o
krDedug                                           Release\obj\RTOSA\Debug.o
krError                                           Release\obj\RTOSA\Debug.o
krGetTimer                                        Release\obj\RTOSA\RTOSA.o
                                                  Release\obj\Menu.o
                                                  Release\obj\control.o
krMemCopyF2R                                      Release\obj\RTOSA\RTOSA.o
                                                  Release\obj\Menu.o
                                                  Release\obj\lib\MenuHAL.o
krMemCopyR2R                                      Release\obj\RTOSA\RTOSA.o
krMemFill                                         Release\obj\RTOSA\RTOSA.o
krProcessTaskQueue                                Release\obj\RTOSA\RTOSA.o
                                                  Release\obj\main.o
krRand                                            Release\obj\RTOSA\RTOSA.o
krSendTask                                        Release\obj\RTOSA\RTOSA.o
                                                  Release\obj\lib\MenuHAL.o
                                                  Release\obj\control.o
krSetTimer                                        Release\obj\RTOSA\RTOSA.o
                                                  Release\obj\Menu.o
                                                  Release\obj\main.o
                                                  Release\obj\control.o
krTimerRun                                        Release\obj\RTOSA\RTOSA.o
main                                              Release\obj\main.o
                                                  h:/bin/../lib/gcc/avr/4.9.2/../../../../avr/lib/avr4/crtatmega8.o
pfDin_Out                                         Release\obj\lib\LedDin.o
pszError                                          Release\obj\control.o
                                                  Release\obj\Sets.o
                                                  Release\obj\Menu.o
pszState                                          Release\obj\control.o
rCRC8                                             Release\obj\Tasks.o
                                                  Release\obj\Sets.o
                                                  Release\obj\RTOSA\RTOSA.o
                                                  Release\obj\RTOSA\Debug.o
                                                  Release\obj\Menu.o
                                                  Release\obj\main.o
                                                  Release\obj\lib\MenuHAL.o
                                                  Release\obj\lib\LedDin.o
                                                  Release\obj\lib\KBD_3x1.o
                                                  Release\obj\lib\ADC.o
                                                  Release\obj\control.o
r_CntTask                                         Release\obj\RTOSA\RTOSA.o
                                                  Release\obj\RTOSA\Debug.o
                                                  Release\obj\main.o
r_CntTimers                                       Release\obj\RTOSA\RTOSA.o
                                                  Release\obj\RTOSA\Debug.o
r_RND                                             Release\obj\RTOSA\RTOSA.o
r_TaskS                                           Release\obj\RTOSA\RTOSA.o
                                                  Release\obj\main.o
szFaultBuf                                        Release\obj\control.o
szFaultCRC                                        Release\obj\control.o
szFaultCRCc                                       Release\obj\control.o
                                                  Release\obj\Sets.o
szFaultCRCs                                       Release\obj\control.o
                                                  Release\obj\Sets.o
szFaultCleaning                                   Release\obj\control.o
szFaultFuel                                       Release\obj\control.o
szFaultTS2                                        Release\obj\control.o
szFaultTen                                        Release\obj\control.o
szParamName_Buf                                   Release\obj\Menu.o
                                                  Release\obj\lib\MenuHAL.o
szParamVal_Buf                                    Release\obj\Menu.o
                                                  Release\obj\lib\MenuHAL.o
szState_B                                         Release\obj\control.o
szState_D                                         Release\obj\control.o
szState_G                                         Release\obj\control.o
szState_H                                         Release\obj\control.o
szState_I                                         Release\obj\control.o
szState_L                                         Release\obj\control.o
szState_P                                         Release\obj\control.o
szState_T                                         Release\obj\control.o
szState_U                                         Release\obj\control.o
szState_x                                         Release\obj\control.o
szt                                               Release\obj\Menu.o
vBits                                             Release\obj\lib\vPorts.o
vDinOff                                           Release\obj\lib\LedDin.o
vDinam                                            Release\obj\lib\LedDin.o
                                                  Release\obj\Menu.o
vFlash                                            Release\obj\main.o
                                                  Release\obj\Menu.o
                                                  Release\obj\control.o
vInType                                           Release\obj\main.o
vLED_CA_CC                                        Release\obj\lib\LedDin.o
vOS_Tick                                          Release\obj\RTOSA\RTOSA.o
                                                  Release\obj\control.o
vPort0                                            Release\obj\lib\vPorts.o
vPort1                                            Release\obj\lib\vPorts.o
vPort2                                            Release\obj\lib\vPorts.o
vPort3                                            Release\obj\lib\vPorts.o
vPorts                                            Release\obj\lib\vPorts.o
vRegParam                                         Release\obj\main.o
                                                  Release\obj\lib\MenuHAL.o
                                                  Release\obj\control.o
vSQ_State                                         Release\obj\control.o
vSets                                             Release\obj\Sets.o
                                                  Release\obj\lib\MenuHAL.o
                                                  Release\obj\control.o
vSets_com                                         Release\obj\Sets.o
                                                  Release\obj\Menu.o
                                                  Release\obj\lib\MenuHAL.o
                                                  Release\obj\control.o
vState                                            Release\obj\main.o
                                                  Release\obj\Menu.o
                                                  Release\obj\lib\MenuHAL.o
                                                  Release\obj\control.o
vStateForWait                                     Release\obj\main.o
                                                  Release\obj\control.o
vStateNext                                        Release\obj\main.o
                                                  Release\obj\Menu.o
                                                  Release\obj\control.o
vStateNextTime                                    Release\obj\main.o
                                                  Release\obj\control.o
v_ADC                                             Release\obj\lib\ADC.o
                                                  Release\obj\control.o
v_ADC_Bufs                                        Release\obj\lib\ADC.o
v_ADC_List                                        Release\obj\lib\ADC.o
v_CntUnld                                         Release\obj\control.o
                                                  Release\obj\Menu.o
v_KBD                                             Release\obj\lib\KBD_3x1.o
                                                  Release\obj\main.o
v_LED3Buf                                         Release\obj\lib\MenuHAL.o
v_Menu                                            Release\obj\lib\MenuHAL.o
                                                  Release\obj\Menu.o
v_N_Unload                                        Release\obj\main.o
                                                  Release\obj\Menu.o
                                                  Release\obj\control.o
v_OLed                                            Release\obj\Tasks.o
                                                  Release\obj\Sets.o
                                                  Release\obj\RTOSA\RTOSA.o
                                                  Release\obj\RTOSA\Debug.o
                                                  Release\obj\Menu.o
                                                  Release\obj\main.o
                                                  Release\obj\lib\MenuHAL.o
                                                  Release\obj\lib\LedDin.o
                                                  Release\obj\lib\KBD_3x1.o
                                                  Release\obj\lib\ADC.o
                                                  Release\obj\control.o
v_OLed_Manual                                     Release\obj\Tasks.o
                                                  Release\obj\Sets.o
                                                  Release\obj\RTOSA\RTOSA.o
                                                  Release\obj\RTOSA\Debug.o
                                                  Release\obj\Menu.o
                                                  Release\obj\main.o
                                                  Release\obj\lib\MenuHAL.o
                                                  Release\obj\lib\LedDin.o
                                                  Release\obj\lib\KBD_3x1.o
                                                  Release\obj\lib\ADC.o
                                                  Release\obj\control.o
v_ORele                                           Release\obj\Tasks.o
                                                  Release\obj\Sets.o
                                                  Release\obj\RTOSA\RTOSA.o
                                                  Release\obj\RTOSA\Debug.o
                                                  Release\obj\Menu.o
                                                  Release\obj\main.o
                                                  Release\obj\lib\MenuHAL.o
                                                  Release\obj\lib\LedDin.o
                                                  Release\obj\lib\KBD_3x1.o
                                                  Release\obj\lib\ADC.o
                                                  Release\obj\control.o
v_ORele_Manual                                    Release\obj\Tasks.o
                                                  Release\obj\Sets.o
                                                  Release\obj\RTOSA\RTOSA.o
                                                  Release\obj\RTOSA\Debug.o
                                                  Release\obj\Menu.o
                                                  Release\obj\main.o
                                                  Release\obj\lib\MenuHAL.o
                                                  Release\obj\lib\LedDin.o
                                                  Release\obj\lib\KBD_3x1.o
                                                  Release\obj\lib\ADC.o
                                                  Release\obj\control.o
v_Param                                           Release\obj\control.o
                                                  Release\obj\Menu.o
v_Time                                            Release\obj\control.o
v_cnt_FultTS2_Unload                              Release\obj\main.o
                                                  Release\obj\control.o
xfunc_out                                         Release\obj\lib\xitoa.o
xitoa                                             Release\obj\lib\xitoa.o
xprintf                                           Release\obj\lib\xitoa.o
xputc                                             Release\obj\lib\xitoa.o
xputs                                             Release\obj\lib\xitoa.o
xsprintf                                          Release\obj\lib\xitoa.o
                                                  Release\obj\Menu.o
                                                  Release\obj\lib\MenuHAL.o
