
Release\bin\PTuCv2.elf:     file format elf32-avr

Sections:
Idx Name          Size      VMA       LMA       File off  Algn
  0 .text         0000216e  00000000  00000000  00000114  2**1
                  CONTENTS, ALLOC, LOAD, READONLY, CODE
  1 .data         00000014  00800060  0000216e  00002282  2**0
                  CONTENTS, ALLOC, LOAD, DATA
  2 .bss          0000018f  00800074  00800074  00002296  2**0
                  ALLOC
  3 .eeprom       0000001e  00810000  00810000  00002296  2**0
                  CONTENTS, ALLOC, LOAD, DATA
  4 .fuse         00000002  00820000  00820000  000022b4  2**0
                  CONTENTS, ALLOC, LOAD, DATA
  5 .lock         00000001  00830000  00830000  000022b6  2**0
                  CONTENTS, ALLOC, LOAD, DATA
  6 .signature    00000003  00840000  00840000  000022b7  2**0
                  CONTENTS, ALLOC, LOAD, READONLY, DATA
  7 .comment      00000030  00000000  00000000  000022ba  2**0
                  CONTENTS, READONLY
  8 .note.gnu.avr.deviceinfo 0000003c  00000000  00000000  000022ec  2**2
                  CONTENTS, READONLY
  9 .debug_aranges 00000198  00000000  00000000  00002328  2**3
                  CONTENTS, READONLY, DEBUGGING
 10 .debug_info   0000757f  00000000  00000000  000024c0  2**0
                  CONTENTS, READONLY, DEBUGGING
 11 .debug_abbrev 00001b94  00000000  00000000  00009a3f  2**0
                  CONTENTS, READONLY, DEBUGGING
 12 .debug_line   00001530  00000000  00000000  0000b5d3  2**0
                  CONTENTS, READONLY, DEBUGGING
 13 .debug_frame  000008ec  00000000  00000000  0000cb04  2**2
                  CONTENTS, READONLY, DEBUGGING
 14 .debug_str    00001293  00000000  00000000  0000d3f0  2**0
                  CONTENTS, READONLY, DEBUGGING
 15 .debug_loc    00001c8b  00000000  00000000  0000e683  2**0
                  CONTENTS, READONLY, DEBUGGING
 16 .debug_ranges 00000068  00000000  00000000  0001030e  2**0
                  CONTENTS, READONLY, DEBUGGING

Disassembly of section .text:

00000000 <__vectors>:
       0:	0c 94 d1 00 	jmp	0x1a2	; 0x1a2 <__ctors_end>
       4:	0c 94 2e 03 	jmp	0x65c	; 0x65c <__vector_1>
       8:	0c 94 ee 00 	jmp	0x1dc	; 0x1dc <__bad_interrupt>
       c:	0c 94 ee 00 	jmp	0x1dc	; 0x1dc <__bad_interrupt>
      10:	0c 94 ee 00 	jmp	0x1dc	; 0x1dc <__bad_interrupt>
      14:	0c 94 ee 00 	jmp	0x1dc	; 0x1dc <__bad_interrupt>
      18:	0c 94 ee 00 	jmp	0x1dc	; 0x1dc <__bad_interrupt>
      1c:	0c 94 ee 00 	jmp	0x1dc	; 0x1dc <__bad_interrupt>
      20:	0c 94 ee 00 	jmp	0x1dc	; 0x1dc <__bad_interrupt>
      24:	0c 94 ee 00 	jmp	0x1dc	; 0x1dc <__bad_interrupt>
      28:	0c 94 d3 0e 	jmp	0x1da6	; 0x1da6 <__vector_10>
      2c:	0c 94 ee 00 	jmp	0x1dc	; 0x1dc <__bad_interrupt>
      30:	0c 94 ee 00 	jmp	0x1dc	; 0x1dc <__bad_interrupt>
      34:	0c 94 ee 00 	jmp	0x1dc	; 0x1dc <__bad_interrupt>
      38:	0c 94 ee 00 	jmp	0x1dc	; 0x1dc <__bad_interrupt>
      3c:	0c 94 ee 00 	jmp	0x1dc	; 0x1dc <__bad_interrupt>
      40:	0c 94 ee 00 	jmp	0x1dc	; 0x1dc <__bad_interrupt>
      44:	0c 94 ee 00 	jmp	0x1dc	; 0x1dc <__bad_interrupt>
      48:	0c 94 ee 00 	jmp	0x1dc	; 0x1dc <__bad_interrupt>
      4c:	0c 94 ee 00 	jmp	0x1dc	; 0x1dc <__bad_interrupt>
      50:	0c 94 ee 00 	jmp	0x1dc	; 0x1dc <__bad_interrupt>
      54:	e8 05       	cpc	r30, r8
      56:	81 07       	cpc	r24, r17
      58:	f5 05       	cpc	r31, r5
      5a:	5f 06       	cpc	r5, r31
      5c:	17 06       	cpc	r1, r23
      5e:	2f 06       	cpc	r2, r31
      60:	4b 06       	cpc	r4, r27
      62:	6b 06       	cpc	r6, r27
      64:	bb 06       	cpc	r11, r27
      66:	81 07       	cpc	r24, r17
      68:	7a 06       	cpc	r7, r26
      6a:	e4 06       	cpc	r14, r20
      6c:	04 07       	cpc	r16, r20
      6e:	12 07       	cpc	r17, r18
      70:	77 07       	cpc	r23, r23
      72:	18 07       	cpc	r17, r24
      74:	32 07       	cpc	r19, r18
      76:	3a 07       	cpc	r19, r26
      78:	5c 07       	cpc	r21, r28
      7a:	77 07       	cpc	r23, r23
      7c:	e5 05       	cpc	r30, r5

0000007e <__trampolines_end>:
      7e:	71 71       	andi	r23, 0x11	; 17
      80:	38 71       	andi	r19, 0x18	; 24

00000081 <szFaultCleaning>:
      81:	71 6d 76                                            qmv

00000084 <szFaultTS2>:
      84:	71 78 5b                                            qx[

00000087 <szFaultCRCc>:
      87:	71 38 39                                            q89

0000008a <szFaultCRCs>:
      8a:	71 38 6d                                            q8m

0000008d <szState_x>:
      8d:	6d 78 73                                            mxs

00000090 <szState_D>:
      90:	77 7c 50                                            w|P

00000093 <szState_G>:
      93:	3d 50 78                                            =Px

00000096 <szState_B>:
      96:	7c 50 54                                            |PT

00000099 <szState_T>:
      99:	78 79 54                                            xyT

0000009c <szState_U>:
      9c:	3e 38 5e                                            >8^

0000009f <szState_I>:
      9f:	04 3d 54                                            .=T

000000a2 <szState_L>:
      a2:	38 5e 00                                            8^.

000000a5 <v_ADC_Bufs>:
      a5:	36 01 60 01 4b 01                                   6.`.K.

000000ab <v_ADC_List>:
      ab:	00 00 01 01 02 02                                   ......

000000b1 <Tab_7Seg>:
      b1:	3f 06 5b 4f 66 6d 7d 07 7f 6f 77 7c 39 5e 79 71     ?.[Ofm}..ow|9^yq

000000c1 <StrLED_Brn>:
      c1:	7c 50 54                                            |PT

000000c4 <StrLED_StP>:
      c4:	6d 78 73                                            mxs

000000c7 <Menu_Main>:
      c7:	07 00 d7 00 01 01 2b 01 0f 01 1d 01 f3 00 e5 00     ......+.........

000000d7 <CB_RunStop>:
      d7:	e2 00 03 00 00 00 00 00 01 00 0e                    ...........

000000e2 <CB_RunStopsz>:
      e2:	50 1c 54                                            P.T

000000e5 <CUNUM_T_Ignition>:
      e5:	f0 00 01 00 f1 01 01 00 2c 01 07                    ........,..

000000f0 <CUNUM_T_Ignitionsz>:
      f0:	78 04 3d                                            x.=

000000f3 <CUNUM_N_Ignition>:
      f3:	fe 00 01 00 ef 01 01 00 1e 00 07                    ...........

000000fe <CUNUM_N_Ignitionsz>:
      fe:	54 04 3d                                            T.=

00000101 <CUNUM_Temp1>:
     101:	0c 01 01 00 eb 01 04 00 78 00 07                    ........x..

0000010c <CUNUM_Temp1sz>:
     10c:	00 00 78                                            ..x

0000010f <CUNUM_N_Unload>:
     10f:	1a 01 01 00 e7 01 01 00 1e 00 07                    ...........

0000011a <CUNUM_N_Unloadsz>:
     11a:	3e 38 5e                                            >8^

0000011d <CUNUM_T_Pause>:
     11d:	28 01 01 00 e5 01 0f 00 3c 00 07                    (.......<..

00000128 <CUNUM_T_Pausesz>:
     128:	73 77 3e                                            sw>

0000012b <CUNUM_Power>:
     12b:	36 01 01 00 f3 01 0a 00 63 00 07                    6.......c..

00000136 <CUNUM_Powersz>:
     136:	00 73 54                                            .sT

00000139 <IncDecVal>:
     139:	01 0a 64                                            ..d

0000013c <vPort3>:
     13c:	03 00 38 02 38 04 38                                ..8.8.8

00000143 <vPort2>:
     143:	06 01 38 01 32 00 32 04 35 05 35 05 38              ..8.2.2.5.5.8

00000150 <vPort1>:
     150:	03 02 38 04 38 00 38                                ..8.8.8

00000157 <vPort0>:
     157:	08 05 32 07 32 02 32 06 38 07 38 06 32 03 32 04     ..2.2.2.8.8.2.2.
     167:	32                                                  2

00000168 <vBits>:
     168:	01 02 04 08 10 20 40 80                             ..... @.

00000170 <fmt_3u>:
     170:	25 30 33 75 00                                      %03u.

00000175 <TaskProcs>:
     175:	58 0c b0 03 61 0c 36 0d 98 0c 9b 0c 71 03 a0 0a     X...a.6.....q...
     185:	49 0a 19 0a 1b 0a 21 0a 27 0a d7 0a 84 0a 7c 09     I.....!.'.....|.
     195:	0f 04 96 03 4d 03 62 03 66 04 a7 07 00              ....M.b.f....

000001a2 <__ctors_end>:
     1a2:	11 24       	eor	r1, r1
     1a4:	1f be       	out	0x3f, r1	; 63
     1a6:	cf e5       	ldi	r28, 0x5F	; 95
     1a8:	d8 e0       	ldi	r29, 0x08	; 8
     1aa:	de bf       	out	0x3e, r29	; 62
     1ac:	cd bf       	out	0x3d, r28	; 61

000001ae <__do_copy_data>:
     1ae:	10 e0       	ldi	r17, 0x00	; 0
     1b0:	a0 e6       	ldi	r26, 0x60	; 96
     1b2:	b0 e0       	ldi	r27, 0x00	; 0
     1b4:	ee e6       	ldi	r30, 0x6E	; 110
     1b6:	f1 e2       	ldi	r31, 0x21	; 33
     1b8:	02 c0       	rjmp	.+4      	; 0x1be <__do_copy_data+0x10>
     1ba:	05 90       	lpm	r0, Z+
     1bc:	0d 92       	st	X+, r0
     1be:	a4 37       	cpi	r26, 0x74	; 116
     1c0:	b1 07       	cpc	r27, r17
     1c2:	d9 f7       	brne	.-10     	; 0x1ba <__do_copy_data+0xc>

000001c4 <__do_clear_bss>:
     1c4:	22 e0       	ldi	r18, 0x02	; 2
     1c6:	a4 e7       	ldi	r26, 0x74	; 116
     1c8:	b0 e0       	ldi	r27, 0x00	; 0
     1ca:	01 c0       	rjmp	.+2      	; 0x1ce <.do_clear_bss_start>

000001cc <.do_clear_bss_loop>:
     1cc:	1d 92       	st	X+, r1

000001ce <.do_clear_bss_start>:
     1ce:	a3 30       	cpi	r26, 0x03	; 3
     1d0:	b2 07       	cpc	r27, r18
     1d2:	e1 f7       	brne	.-8      	; 0x1cc <.do_clear_bss_loop>
     1d4:	0e 94 c4 0f 	call	0x1f88	; 0x1f88 <main>
     1d8:	0c 94 b5 10 	jmp	0x216a	; 0x216a <_exit>

000001dc <__bad_interrupt>:
     1dc:	0c 94 6b 0c 	jmp	0x18d6	; 0x18d6 <__vector_default>

000001e0 <f_FSM_CleanScrew.part.0>:
      break;
  }

  return 0;
}
u08 f_FSM_CleanScrew(eFSM_CleanScrew_t vFSM)
     1e0:	0f 93       	push	r16
     1e2:	1f 93       	push	r17
  if (vFSM) {
    FSM_CleanScrew = vFSM;
    return 0;
  }

  switch (FSM_CleanScrew) {
     1e4:	80 91 64 00 	lds	r24, 0x0064
     1e8:	90 91 65 00 	lds	r25, 0x0065
     1ec:	83 30       	cpi	r24, 0x03	; 3
     1ee:	91 05       	cpc	r25, r1
     1f0:	09 f4       	brne	.+2      	; 0x1f4 <f_FSM_CleanScrew.part.0+0x14>
     1f2:	7b c0       	rjmp	.+246    	; 0x2ea <f_FSM_CleanScrew.part.0+0x10a>
     1f4:	30 f4       	brcc	.+12     	; 0x202 <f_FSM_CleanScrew.part.0+0x22>
     1f6:	81 30       	cpi	r24, 0x01	; 1
     1f8:	91 05       	cpc	r25, r1
     1fa:	19 f1       	breq	.+70     	; 0x242 <f_FSM_CleanScrew.part.0+0x62>
     1fc:	02 97       	sbiw	r24, 0x02	; 2
     1fe:	99 f1       	breq	.+102    	; 0x266 <f_FSM_CleanScrew.part.0+0x86>
     200:	18 c1       	rjmp	.+560    	; 0x432 <f_FSM_CleanScrew.part.0+0x252>
     202:	85 30       	cpi	r24, 0x05	; 5
     204:	91 05       	cpc	r25, r1
     206:	09 f4       	brne	.+2      	; 0x20a <f_FSM_CleanScrew.part.0+0x2a>
     208:	e0 c0       	rjmp	.+448    	; 0x3ca <f_FSM_CleanScrew.part.0+0x1ea>
     20a:	08 f4       	brcc	.+2      	; 0x20e <f_FSM_CleanScrew.part.0+0x2e>
     20c:	9d c0       	rjmp	.+314    	; 0x348 <f_FSM_CleanScrew.part.0+0x168>
     20e:	06 97       	sbiw	r24, 0x06	; 6
     210:	09 f0       	breq	.+2      	; 0x214 <f_FSM_CleanScrew.part.0+0x34>
     212:	0f c1       	rjmp	.+542    	; 0x432 <f_FSM_CleanScrew.part.0+0x252>

        break;
      }

    case CLR_FAULT: {
        vState = FAULT_SCREW;
     214:	8e e0       	ldi	r24, 0x0E	; 14
     216:	90 e0       	ldi	r25, 0x00	; 0
     218:	90 93 98 00 	sts	0x0098, r25
     21c:	80 93 97 00 	sts	0x0097, r24
        pszError = (u08*)&szFaultCleaning;
     220:	81 e8       	ldi	r24, 0x81	; 129
     222:	90 e0       	ldi	r25, 0x00	; 0
     224:	90 93 a5 00 	sts	0x00A5, r25
     228:	80 93 a4 00 	sts	0x00A4, r24
        mSetTimerTask(fRunStop, 120 _s);
     22c:	60 ee       	ldi	r22, 0xE0	; 224
     22e:	7e e2       	ldi	r23, 0x2E	; 46
     230:	81 e0       	ldi	r24, 0x01	; 1
     232:	0e 94 45 0e 	call	0x1c8a	; 0x1c8a <krSetTimer>
        TimerTaskID = GetTaskID(fRunStop);
     236:	81 e0       	ldi	r24, 0x01	; 1
     238:	80 93 9a 00 	sts	0x009A, r24
        FSM_CleanScrew  = CLR_INIT;
     23c:	81 e0       	ldi	r24, 0x01	; 1
     23e:	90 e0       	ldi	r25, 0x00	; 0
     240:	f4 c0       	rjmp	.+488    	; 0x42a <f_FSM_CleanScrew.part.0+0x24a>
  }

  switch (FSM_CleanScrew) {
    case CLR_INIT: {
        mRK_Off(K_R_SCREW);
        mRK_Off(K_L_SCREW);
     242:	80 91 e5 00 	lds	r24, 0x00E5
     246:	83 7f       	andi	r24, 0xF3	; 243
        cntClean = 0;
     248:	10 92 83 00 	sts	0x0083, r1
        N_Unload_Old = v_CntUnld;
     24c:	90 91 a6 00 	lds	r25, 0x00A6
     250:	90 93 82 00 	sts	0x0082, r25
        vCCW_Time = vOS_Tick + 2 _s;
     254:	40 91 e1 01 	lds	r20, 0x01E1
     258:	50 91 e2 01 	lds	r21, 0x01E2
     25c:	60 91 e3 01 	lds	r22, 0x01E3
     260:	70 91 e4 01 	lds	r23, 0x01E4
     264:	cc c0       	rjmp	.+408    	; 0x3fe <f_FSM_CleanScrew.part.0+0x21e>
        mRK_On(K_L_SCREW);
        break;
      }

    case CLR_CCW: {
        mRK_Off(K_R_SCREW);
     266:	80 91 e5 00 	lds	r24, 0x00E5
     26a:	98 2f       	mov	r25, r24
     26c:	9b 7f       	andi	r25, 0xFB	; 251
        mRK_On(K_L_SCREW);
     26e:	98 60       	ori	r25, 0x08	; 8
     270:	90 93 e5 00 	sts	0x00E5, r25

        if (vOS_Tick >= vCCW_Time) {
     274:	40 91 e1 01 	lds	r20, 0x01E1
     278:	50 91 e2 01 	lds	r21, 0x01E2
     27c:	60 91 e3 01 	lds	r22, 0x01E3
     280:	70 91 e4 01 	lds	r23, 0x01E4
     284:	00 91 7e 00 	lds	r16, 0x007E
     288:	10 91 7f 00 	lds	r17, 0x007F
     28c:	20 91 80 00 	lds	r18, 0x0080
     290:	30 91 81 00 	lds	r19, 0x0081
     294:	40 17       	cp	r20, r16
     296:	51 07       	cpc	r21, r17
     298:	62 07       	cpc	r22, r18
     29a:	73 07       	cpc	r23, r19
     29c:	f0 f0       	brcs	.+60     	; 0x2da <f_FSM_CleanScrew.part.0+0xfa>
          cntClean++;
     29e:	90 91 83 00 	lds	r25, 0x0083
     2a2:	9f 5f       	subi	r25, 0xFF	; 255
     2a4:	90 93 83 00 	sts	0x0083, r25
          N_Unload_Old = v_CntUnld;
     2a8:	90 91 a6 00 	lds	r25, 0x00A6
     2ac:	90 93 82 00 	sts	0x0082, r25
          v_Pause_Timer = vOS_Tick + 1 _s;
     2b0:	4c 59       	subi	r20, 0x9C	; 156
     2b2:	5f 4f       	sbci	r21, 0xFF	; 255
     2b4:	6f 4f       	sbci	r22, 0xFF	; 255
     2b6:	7f 4f       	sbci	r23, 0xFF	; 255
     2b8:	40 93 7a 00 	sts	0x007A, r20
     2bc:	50 93 7b 00 	sts	0x007B, r21
     2c0:	60 93 7c 00 	sts	0x007C, r22
     2c4:	70 93 7d 00 	sts	0x007D, r23
          FSM_CleanScrew  = CLR_CCW_PAUSE;
     2c8:	23 e0       	ldi	r18, 0x03	; 3
     2ca:	30 e0       	ldi	r19, 0x00	; 0
     2cc:	30 93 65 00 	sts	0x0065, r19
     2d0:	20 93 64 00 	sts	0x0064, r18
          mRK_Off(K_R_SCREW);
          mRK_Off(K_L_SCREW);
     2d4:	83 7f       	andi	r24, 0xF3	; 243
     2d6:	80 93 e5 00 	sts	0x00E5, r24
        }

        if (cntClean > 3) {
     2da:	80 91 83 00 	lds	r24, 0x0083
     2de:	84 30       	cpi	r24, 0x04	; 4
     2e0:	08 f4       	brcc	.+2      	; 0x2e4 <f_FSM_CleanScrew.part.0+0x104>
     2e2:	a7 c0       	rjmp	.+334    	; 0x432 <f_FSM_CleanScrew.part.0+0x252>
          FSM_CleanScrew = CLR_FAULT;
     2e4:	86 e0       	ldi	r24, 0x06	; 6
     2e6:	90 e0       	ldi	r25, 0x00	; 0
     2e8:	a0 c0       	rjmp	.+320    	; 0x42a <f_FSM_CleanScrew.part.0+0x24a>
        break;
      }

    case CLR_CCW_PAUSE: {
        mRK_Off(K_R_SCREW);
        mRK_Off(K_L_SCREW);
     2ea:	80 91 e5 00 	lds	r24, 0x00E5
     2ee:	83 7f       	andi	r24, 0xF3	; 243
     2f0:	80 93 e5 00 	sts	0x00E5, r24

        if (vOS_Tick >= v_Pause_Timer) {
     2f4:	40 91 e1 01 	lds	r20, 0x01E1
     2f8:	50 91 e2 01 	lds	r21, 0x01E2
     2fc:	60 91 e3 01 	lds	r22, 0x01E3
     300:	70 91 e4 01 	lds	r23, 0x01E4
     304:	00 91 7a 00 	lds	r16, 0x007A
     308:	10 91 7b 00 	lds	r17, 0x007B
     30c:	20 91 7c 00 	lds	r18, 0x007C
     310:	30 91 7d 00 	lds	r19, 0x007D
     314:	40 17       	cp	r20, r16
     316:	51 07       	cpc	r21, r17
     318:	62 07       	cpc	r22, r18
     31a:	73 07       	cpc	r23, r19
     31c:	08 f4       	brcc	.+2      	; 0x320 <f_FSM_CleanScrew.part.0+0x140>
     31e:	89 c0       	rjmp	.+274    	; 0x432 <f_FSM_CleanScrew.part.0+0x252>
          vCW_TimeOut = vOS_Tick + 4 _s;
     320:	40 57       	subi	r20, 0x70	; 112
     322:	5e 4f       	sbci	r21, 0xFE	; 254
     324:	6f 4f       	sbci	r22, 0xFF	; 255
     326:	7f 4f       	sbci	r23, 0xFF	; 255
     328:	40 93 76 00 	sts	0x0076, r20
     32c:	50 93 77 00 	sts	0x0077, r21
     330:	60 93 78 00 	sts	0x0078, r22
     334:	70 93 79 00 	sts	0x0079, r23
          FSM_CleanScrew  = CLR_CW;
     338:	24 e0       	ldi	r18, 0x04	; 4
     33a:	30 e0       	ldi	r19, 0x00	; 0
     33c:	30 93 65 00 	sts	0x0065, r19
     340:	20 93 64 00 	sts	0x0064, r18
          mRK_Off(K_L_SCREW);
          mRK_On(K_R_SCREW);
     344:	84 60       	ori	r24, 0x04	; 4
     346:	6e c0       	rjmp	.+220    	; 0x424 <f_FSM_CleanScrew.part.0+0x244>

        break;
      }

    case CLR_CW: {
        mRK_Off(K_L_SCREW);
     348:	80 91 e5 00 	lds	r24, 0x00E5
     34c:	98 2f       	mov	r25, r24
     34e:	97 7f       	andi	r25, 0xF7	; 247
        mRK_On(K_R_SCREW);
     350:	94 60       	ori	r25, 0x04	; 4
     352:	90 93 e5 00 	sts	0x00E5, r25

        if (vOS_Tick >= vCW_TimeOut) {
     356:	40 91 e1 01 	lds	r20, 0x01E1
     35a:	50 91 e2 01 	lds	r21, 0x01E2
     35e:	60 91 e3 01 	lds	r22, 0x01E3
     362:	70 91 e4 01 	lds	r23, 0x01E4
     366:	00 91 76 00 	lds	r16, 0x0076
     36a:	10 91 77 00 	lds	r17, 0x0077
     36e:	20 91 78 00 	lds	r18, 0x0078
     372:	30 91 79 00 	lds	r19, 0x0079
     376:	40 17       	cp	r20, r16
     378:	51 07       	cpc	r21, r17
     37a:	62 07       	cpc	r22, r18
     37c:	73 07       	cpc	r23, r19
     37e:	a8 f0       	brcs	.+42     	; 0x3aa <f_FSM_CleanScrew.part.0+0x1ca>
          v_Pause_Timer = vOS_Tick + 1 _s;
     380:	4c 59       	subi	r20, 0x9C	; 156
     382:	5f 4f       	sbci	r21, 0xFF	; 255
     384:	6f 4f       	sbci	r22, 0xFF	; 255
     386:	7f 4f       	sbci	r23, 0xFF	; 255
     388:	40 93 7a 00 	sts	0x007A, r20
     38c:	50 93 7b 00 	sts	0x007B, r21
     390:	60 93 7c 00 	sts	0x007C, r22
     394:	70 93 7d 00 	sts	0x007D, r23
          FSM_CleanScrew  = CLR_CW_PAUSE;
     398:	25 e0       	ldi	r18, 0x05	; 5
     39a:	30 e0       	ldi	r19, 0x00	; 0
     39c:	30 93 65 00 	sts	0x0065, r19
     3a0:	20 93 64 00 	sts	0x0064, r18
          mRK_Off(K_R_SCREW);
     3a4:	83 7f       	andi	r24, 0xF3	; 243
     3a6:	80 93 e5 00 	sts	0x00E5, r24
          mRK_Off(K_L_SCREW);
        }

        if (N_Unload_Old != v_CntUnld) {
     3aa:	80 91 82 00 	lds	r24, 0x0082
     3ae:	90 91 a6 00 	lds	r25, 0x00A6
     3b2:	89 17       	cp	r24, r25
     3b4:	39 f0       	breq	.+14     	; 0x3c4 <f_FSM_CleanScrew.part.0+0x1e4>
          FSM_CleanScrew  = CLR_INIT;
     3b6:	81 e0       	ldi	r24, 0x01	; 1
     3b8:	90 e0       	ldi	r25, 0x00	; 0
     3ba:	90 93 65 00 	sts	0x0065, r25
     3be:	80 93 64 00 	sts	0x0064, r24
     3c2:	38 c0       	rjmp	.+112    	; 0x434 <f_FSM_CleanScrew.part.0+0x254>
          return 1;
        }

        N_Unload_Old = v_CntUnld;
     3c4:	80 93 82 00 	sts	0x0082, r24
     3c8:	34 c0       	rjmp	.+104    	; 0x432 <f_FSM_CleanScrew.part.0+0x252>
        break;
      }

    case CLR_CW_PAUSE: {
        mRK_Off(K_R_SCREW);
        mRK_Off(K_L_SCREW);
     3ca:	80 91 e5 00 	lds	r24, 0x00E5
     3ce:	83 7f       	andi	r24, 0xF3	; 243
     3d0:	80 93 e5 00 	sts	0x00E5, r24

        if (vOS_Tick >= v_Pause_Timer) {
     3d4:	40 91 e1 01 	lds	r20, 0x01E1
     3d8:	50 91 e2 01 	lds	r21, 0x01E2
     3dc:	60 91 e3 01 	lds	r22, 0x01E3
     3e0:	70 91 e4 01 	lds	r23, 0x01E4
     3e4:	00 91 7a 00 	lds	r16, 0x007A
     3e8:	10 91 7b 00 	lds	r17, 0x007B
     3ec:	20 91 7c 00 	lds	r18, 0x007C
     3f0:	30 91 7d 00 	lds	r19, 0x007D
     3f4:	40 17       	cp	r20, r16
     3f6:	51 07       	cpc	r21, r17
     3f8:	62 07       	cpc	r22, r18
     3fa:	73 07       	cpc	r23, r19
     3fc:	d0 f0       	brcs	.+52     	; 0x432 <f_FSM_CleanScrew.part.0+0x252>
          vCCW_Time = vOS_Tick + 2 _s;
     3fe:	48 53       	subi	r20, 0x38	; 56
     400:	5f 4f       	sbci	r21, 0xFF	; 255
     402:	6f 4f       	sbci	r22, 0xFF	; 255
     404:	7f 4f       	sbci	r23, 0xFF	; 255
     406:	40 93 7e 00 	sts	0x007E, r20
     40a:	50 93 7f 00 	sts	0x007F, r21
     40e:	60 93 80 00 	sts	0x0080, r22
     412:	70 93 81 00 	sts	0x0081, r23
          FSM_CleanScrew  = CLR_CCW;
     416:	22 e0       	ldi	r18, 0x02	; 2
     418:	30 e0       	ldi	r19, 0x00	; 0
     41a:	30 93 65 00 	sts	0x0065, r19
     41e:	20 93 64 00 	sts	0x0064, r18
          mRK_Off(K_R_SCREW);
          mRK_On(K_L_SCREW);
     422:	88 60       	ori	r24, 0x08	; 8
     424:	80 93 e5 00 	sts	0x00E5, r24
     428:	04 c0       	rjmp	.+8      	; 0x432 <f_FSM_CleanScrew.part.0+0x252>
    case CLR_FAULT: {
        vState = FAULT_SCREW;
        pszError = (u08*)&szFaultCleaning;
        mSetTimerTask(fRunStop, 120 _s);
        TimerTaskID = GetTaskID(fRunStop);
        FSM_CleanScrew  = CLR_INIT;
     42a:	90 93 65 00 	sts	0x0065, r25
     42e:	80 93 64 00 	sts	0x0064, r24
    default: {
      }
      break;
  }

  return 0;
     432:	80 e0       	ldi	r24, 0x00	; 0
}
     434:	1f 91       	pop	r17
     436:	0f 91       	pop	r16
     438:	08 95       	ret

0000043a <f_FSM_Unload.part.1>:
  if (vFSM) {
    FSM_Unload = vFSM;
    return 0;
  }

  switch (FSM_Unload) {
     43a:	80 91 89 00 	lds	r24, 0x0089
     43e:	90 91 8a 00 	lds	r25, 0x008A
     442:	83 30       	cpi	r24, 0x03	; 3
     444:	91 05       	cpc	r25, r1
     446:	09 f4       	brne	.+2      	; 0x44a <f_FSM_Unload.part.1+0x10>
     448:	e9 c0       	rjmp	.+466    	; 0x61c <f_FSM_Unload.part.1+0x1e2>
     44a:	40 f4       	brcc	.+16     	; 0x45c <f_FSM_Unload.part.1+0x22>
     44c:	81 30       	cpi	r24, 0x01	; 1
     44e:	91 05       	cpc	r25, r1
     450:	09 f4       	brne	.+2      	; 0x454 <f_FSM_Unload.part.1+0x1a>
     452:	6e c0       	rjmp	.+220    	; 0x530 <f_FSM_Unload.part.1+0xf6>
     454:	02 97       	sbiw	r24, 0x02	; 2
     456:	09 f4       	brne	.+2      	; 0x45a <f_FSM_Unload.part.1+0x20>
     458:	90 c0       	rjmp	.+288    	; 0x57a <f_FSM_Unload.part.1+0x140>
     45a:	fe c0       	rjmp	.+508    	; 0x658 <f_FSM_Unload.part.1+0x21e>
     45c:	84 30       	cpi	r24, 0x04	; 4
     45e:	91 05       	cpc	r25, r1
     460:	19 f0       	breq	.+6      	; 0x468 <f_FSM_Unload.part.1+0x2e>
     462:	05 97       	sbiw	r24, 0x05	; 5
     464:	e1 f1       	breq	.+120    	; 0x4de <f_FSM_Unload.part.1+0xa4>
     466:	f8 c0       	rjmp	.+496    	; 0x658 <f_FSM_Unload.part.1+0x21e>
    case UNLD_FILL_BNKR: {
        pszState = (u08*)&szState_L;
     468:	82 ea       	ldi	r24, 0xA2	; 162
     46a:	90 e0       	ldi	r25, 0x00	; 0
     46c:	90 93 a8 00 	sts	0x00A8, r25
     470:	80 93 a7 00 	sts	0x00A7, r24
        mRK_Off(K_R_SCREW);
        mRK_Off(K_L_SCREW);
     474:	80 91 e5 00 	lds	r24, 0x00E5
     478:	83 7f       	andi	r24, 0xF3	; 243
        mRK_On(K_BUNKER);                   /* Включить двигатель подачи топлива из бункера. */
     47a:	80 62       	ori	r24, 0x20	; 32
     47c:	80 93 e5 00 	sts	0x00E5, r24
     480:	80 91 e1 01 	lds	r24, 0x01E1
     484:	90 91 e2 01 	lds	r25, 0x01E2
     488:	a0 91 e3 01 	lds	r26, 0x01E3
     48c:	b0 91 e4 01 	lds	r27, 0x01E4

        if (pFlg->FuelOK == 1) {                                        /* Топливо появилось */
     490:	00 9b       	sbis	0x00, 0	; 0
     492:	0f c0       	rjmp	.+30     	; 0x4b2 <f_FSM_Unload.part.1+0x78>
          vUnloadTimeOut = vOS_Tick + 4 _s;                   /* добавим время для "добавки" */
     494:	80 57       	subi	r24, 0x70	; 112
     496:	9e 4f       	sbci	r25, 0xFE	; 254
     498:	af 4f       	sbci	r26, 0xFF	; 255
     49a:	bf 4f       	sbci	r27, 0xFF	; 255
     49c:	80 93 85 00 	sts	0x0085, r24
     4a0:	90 93 86 00 	sts	0x0086, r25
     4a4:	a0 93 87 00 	sts	0x0087, r26
     4a8:	b0 93 88 00 	sts	0x0088, r27
          FSM_Unload  = UNLD_WAIT;
     4ac:	85 e0       	ldi	r24, 0x05	; 5
     4ae:	90 e0       	ldi	r25, 0x00	; 0
     4b0:	3a c0       	rjmp	.+116    	; 0x526 <f_FSM_Unload.part.1+0xec>
        }  else {                               /* Топлива нет */
          if (vOS_Tick >= vUnloadTimeOut) {      /* Предельный интервал ожидания превышен */
     4b2:	40 91 85 00 	lds	r20, 0x0085
     4b6:	50 91 86 00 	lds	r21, 0x0086
     4ba:	60 91 87 00 	lds	r22, 0x0087
     4be:	70 91 88 00 	lds	r23, 0x0088
     4c2:	84 17       	cp	r24, r20
     4c4:	95 07       	cpc	r25, r21
     4c6:	a6 07       	cpc	r26, r22
     4c8:	b7 07       	cpc	r27, r23
     4ca:	08 f4       	brcc	.+2      	; 0x4ce <f_FSM_Unload.part.1+0x94>
     4cc:	c5 c0       	rjmp	.+394    	; 0x658 <f_FSM_Unload.part.1+0x21e>
            vState = FAULT_LOAD;  /* Топливо есть (с добавкой) продолжаем выгрузку в топку */
     4ce:	83 e1       	ldi	r24, 0x13	; 19
     4d0:	90 e0       	ldi	r25, 0x00	; 0
     4d2:	90 93 98 00 	sts	0x0098, r25
     4d6:	80 93 97 00 	sts	0x0097, r24
            return 1;
     4da:	81 e0       	ldi	r24, 0x01	; 1
     4dc:	08 95       	ret

        break;
      }

    case UNLD_WAIT: {
        pszState = (u08*)&szState_L;
     4de:	82 ea       	ldi	r24, 0xA2	; 162
     4e0:	90 e0       	ldi	r25, 0x00	; 0
     4e2:	90 93 a8 00 	sts	0x00A8, r25
     4e6:	80 93 a7 00 	sts	0x00A7, r24
        mRK_Off(K_R_SCREW);
        mRK_Off(K_L_SCREW);
     4ea:	80 91 e5 00 	lds	r24, 0x00E5
     4ee:	83 7f       	andi	r24, 0xF3	; 243
        mRK_On(K_BUNKER);                   /* Включить двигатель подачи топлива из бункера. */
     4f0:	80 62       	ori	r24, 0x20	; 32
     4f2:	80 93 e5 00 	sts	0x00E5, r24

        if (vOS_Tick >= vUnloadTimeOut) {
     4f6:	80 91 85 00 	lds	r24, 0x0085
     4fa:	90 91 86 00 	lds	r25, 0x0086
     4fe:	a0 91 87 00 	lds	r26, 0x0087
     502:	b0 91 88 00 	lds	r27, 0x0088
     506:	40 91 e1 01 	lds	r20, 0x01E1
     50a:	50 91 e2 01 	lds	r21, 0x01E2
     50e:	60 91 e3 01 	lds	r22, 0x01E3
     512:	70 91 e4 01 	lds	r23, 0x01E4
     516:	48 17       	cp	r20, r24
     518:	59 07       	cpc	r21, r25
     51a:	6a 07       	cpc	r22, r26
     51c:	7b 07       	cpc	r23, r27
     51e:	08 f4       	brcc	.+2      	; 0x522 <f_FSM_Unload.part.1+0xe8>
     520:	9b c0       	rjmp	.+310    	; 0x658 <f_FSM_Unload.part.1+0x21e>
          FSM_Unload  = UNLD_ACT;   /* Топливо есть (с добавкой) продолжаем выгрузку в топку */
     522:	82 e0       	ldi	r24, 0x02	; 2
     524:	90 e0       	ldi	r25, 0x00	; 0
     526:	90 93 8a 00 	sts	0x008A, r25
     52a:	80 93 89 00 	sts	0x0089, r24
     52e:	94 c0       	rjmp	.+296    	; 0x658 <f_FSM_Unload.part.1+0x21e>
      }

    case UNLD_INIT: {
        //        vCntUnload++;                      /* Инкремент счетчика количества выгрузок топлива.*/
        mRK_Off(K_R_SCREW);
        mRK_Off(K_L_SCREW);
     530:	80 91 e5 00 	lds	r24, 0x00E5
     534:	83 7f       	andi	r24, 0xF3	; 243
        v_CntUnld = 0;
     536:	10 92 a6 00 	sts	0x00A6, r1
        vUnloadTimeOut = vOS_Tick + 4 _s;
     53a:	40 91 e1 01 	lds	r20, 0x01E1
     53e:	50 91 e2 01 	lds	r21, 0x01E2
     542:	60 91 e3 01 	lds	r22, 0x01E3
     546:	70 91 e4 01 	lds	r23, 0x01E4
     54a:	40 57       	subi	r20, 0x70	; 112
     54c:	5e 4f       	sbci	r21, 0xFE	; 254
     54e:	6f 4f       	sbci	r22, 0xFF	; 255
     550:	7f 4f       	sbci	r23, 0xFF	; 255
     552:	40 93 85 00 	sts	0x0085, r20
     556:	50 93 86 00 	sts	0x0086, r21
     55a:	60 93 87 00 	sts	0x0087, r22
     55e:	70 93 88 00 	sts	0x0088, r23
        N_Unload_Old = v_CntUnld;
     562:	10 92 84 00 	sts	0x0084, r1
        FSM_Unload  = UNLD_ACT;
     566:	22 e0       	ldi	r18, 0x02	; 2
     568:	30 e0       	ldi	r19, 0x00	; 0
     56a:	30 93 8a 00 	sts	0x008A, r19
     56e:	20 93 89 00 	sts	0x0089, r18
        mRK_Off(K_L_SCREW);
        mRK_On(K_R_SCREW);
     572:	84 60       	ori	r24, 0x04	; 4
     574:	80 93 e5 00 	sts	0x00E5, r24
     578:	6f c0       	rjmp	.+222    	; 0x658 <f_FSM_Unload.part.1+0x21e>
     57a:	80 91 e1 01 	lds	r24, 0x01E1
     57e:	90 91 e2 01 	lds	r25, 0x01E2
     582:	a0 91 e3 01 	lds	r26, 0x01E3
     586:	b0 91 e4 01 	lds	r27, 0x01E4
        break;
      }

    case UNLD_ACT: {
        if (pFlg->FuelOK == 1) {
     58a:	00 99       	sbic	0x00, 0	; 0
     58c:	0f c0       	rjmp	.+30     	; 0x5ac <f_FSM_Unload.part.1+0x172>
          //FSM_Unload  = UNLD_ACT;
        } else {
          vUnloadTimeOut = vOS_Tick + 10 _s;       /* Предельное время заполнения из бункера */
     58e:	88 51       	subi	r24, 0x18	; 24
     590:	9c 4f       	sbci	r25, 0xFC	; 252
     592:	af 4f       	sbci	r26, 0xFF	; 255
     594:	bf 4f       	sbci	r27, 0xFF	; 255
     596:	80 93 85 00 	sts	0x0085, r24
     59a:	90 93 86 00 	sts	0x0086, r25
     59e:	a0 93 87 00 	sts	0x0087, r26
     5a2:	b0 93 88 00 	sts	0x0088, r27
          FSM_Unload  = UNLD_FILL_BNKR;
     5a6:	84 e0       	ldi	r24, 0x04	; 4
     5a8:	90 e0       	ldi	r25, 0x00	; 0
     5aa:	bd cf       	rjmp	.-134    	; 0x526 <f_FSM_Unload.part.1+0xec>
          break;
        }

        mRK_Off(K_L_SCREW);
        mRK_On(K_R_SCREW);
        mRK_Off(K_BUNKER);                 /* Отключить двигатель подачи топлива из бункера. */
     5ac:	20 91 e5 00 	lds	r18, 0x00E5
     5b0:	27 7d       	andi	r18, 0xD7	; 215
     5b2:	24 60       	ori	r18, 0x04	; 4
     5b4:	20 93 e5 00 	sts	0x00E5, r18

        if (vOS_Tick >= vUnloadTimeOut) {
     5b8:	40 91 85 00 	lds	r20, 0x0085
     5bc:	50 91 86 00 	lds	r21, 0x0086
     5c0:	60 91 87 00 	lds	r22, 0x0087
     5c4:	70 91 88 00 	lds	r23, 0x0088
     5c8:	84 17       	cp	r24, r20
     5ca:	95 07       	cpc	r25, r21
     5cc:	a6 07       	cpc	r26, r22
     5ce:	b7 07       	cpc	r27, r23
     5d0:	30 f0       	brcs	.+12     	; 0x5de <f_FSM_Unload.part.1+0x1a4>
          FSM_Unload  = UNLD_CLR;
     5d2:	23 e0       	ldi	r18, 0x03	; 3
     5d4:	30 e0       	ldi	r19, 0x00	; 0
     5d6:	30 93 8a 00 	sts	0x008A, r19
     5da:	20 93 89 00 	sts	0x0089, r18
        }

        if (N_Unload_Old != v_CntUnld) {
     5de:	20 91 a6 00 	lds	r18, 0x00A6
     5e2:	30 91 84 00 	lds	r19, 0x0084
     5e6:	32 17       	cp	r19, r18
     5e8:	61 f0       	breq	.+24     	; 0x602 <f_FSM_Unload.part.1+0x1c8>
          vUnloadTimeOut = vOS_Tick + 4 _s;
     5ea:	80 57       	subi	r24, 0x70	; 112
     5ec:	9e 4f       	sbci	r25, 0xFE	; 254
     5ee:	af 4f       	sbci	r26, 0xFF	; 255
     5f0:	bf 4f       	sbci	r27, 0xFF	; 255
     5f2:	80 93 85 00 	sts	0x0085, r24
     5f6:	90 93 86 00 	sts	0x0086, r25
     5fa:	a0 93 87 00 	sts	0x0087, r26
     5fe:	b0 93 88 00 	sts	0x0088, r27
        }

        N_Unload_Old = v_CntUnld;
     602:	20 93 84 00 	sts	0x0084, r18

        if (v_CntUnld >= v_N_Unload) {
     606:	80 91 ca 01 	lds	r24, 0x01CA
     60a:	28 17       	cp	r18, r24
     60c:	28 f1       	brcs	.+74     	; 0x658 <f_FSM_Unload.part.1+0x21e>
          FSM_Unload  = UNLD_INIT;                             /* Выход после подачи топлива */
     60e:	81 e0       	ldi	r24, 0x01	; 1
     610:	90 e0       	ldi	r25, 0x00	; 0
     612:	90 93 8a 00 	sts	0x008A, r25
     616:	80 93 89 00 	sts	0x0089, r24
     61a:	08 95       	ret
     61c:	0e 94 f0 00 	call	0x1e0	; 0x1e0 <f_FSM_CleanScrew.part.0>

        break;
      }

    case UNLD_CLR: {
        if (f_FSM_CleanScrew(0)) {
     620:	88 23       	and	r24, r24
     622:	d1 f0       	breq	.+52     	; 0x658 <f_FSM_Unload.part.1+0x21e>
          FSM_Unload  = UNLD_ACT;
     624:	82 e0       	ldi	r24, 0x02	; 2
     626:	90 e0       	ldi	r25, 0x00	; 0
     628:	90 93 8a 00 	sts	0x008A, r25
     62c:	80 93 89 00 	sts	0x0089, r24
          vUnloadTimeOut = vOS_Tick + 4 _s;
     630:	80 91 e1 01 	lds	r24, 0x01E1
     634:	90 91 e2 01 	lds	r25, 0x01E2
     638:	a0 91 e3 01 	lds	r26, 0x01E3
     63c:	b0 91 e4 01 	lds	r27, 0x01E4
     640:	80 57       	subi	r24, 0x70	; 112
     642:	9e 4f       	sbci	r25, 0xFE	; 254
     644:	af 4f       	sbci	r26, 0xFF	; 255
     646:	bf 4f       	sbci	r27, 0xFF	; 255
     648:	80 93 85 00 	sts	0x0085, r24
     64c:	90 93 86 00 	sts	0x0086, r25
     650:	a0 93 87 00 	sts	0x0087, r26
     654:	b0 93 88 00 	sts	0x0088, r27
    default: {
      }
      break;
  }

  return 0;
     658:	80 e0       	ldi	r24, 0x00	; 0
}
     65a:	08 95       	ret

0000065c <__vector_1>:
}

#endif // 0

ISR(INT0_vect)
{
     65c:	1f 92       	push	r1
     65e:	0f 92       	push	r0
     660:	0f b6       	in	r0, 0x3f	; 63
     662:	0f 92       	push	r0
     664:	11 24       	eor	r1, r1
  //  mSetTimerTask(fGetFuel, 500 _ms);
  // fBuzOnTime(100 _ms);
}
     666:	0f 90       	pop	r0
     668:	0f be       	out	0x3f, r0	; 63
     66a:	0f 90       	pop	r0
     66c:	1f 90       	pop	r1
     66e:	18 95       	reti

00000670 <fFaultIgnition>:



void fFaultIgnition(void)
{
  vState = BRN_UNLOAD;                          /* Устанавливаем режим горения с выгрузкой */
     670:	8a e0       	ldi	r24, 0x0A	; 10
     672:	90 e0       	ldi	r25, 0x00	; 0
     674:	90 93 98 00 	sts	0x0098, r25
     678:	80 93 97 00 	sts	0x0097, r24
     67c:	08 95       	ret

0000067e <fBuzSound>:
}


void fBuzSound(u08 msk)
{
  if (vFlash & msk) {
     67e:	90 91 cb 01 	lds	r25, 0x01CB
     682:	89 23       	and	r24, r25
     684:	11 f0       	breq	.+4      	; 0x68a <fBuzSound+0xc>
    fBuzOn();
     686:	0c 94 98 0c 	jmp	0x1930	; 0x1930 <fBuzOn>
  } else {
    fBuzOff();
     68a:	0c 94 9b 0c 	jmp	0x1936	; 0x1936 <fBuzOff>

0000068e <fLed_Fault_On>:
  }
}


void fLed_Fault_On(void)
{
     68e:	08 95       	ret

00000690 <fLed_Fault_Off>:
  //mLED_On(LED_FAULT);
}

void fLed_Fault_Off(void)
{
     690:	08 95       	ret

00000692 <fSupply_On>:
  //mLED_Off(LED_FAULT);
}


void fSupply_On(void)
{
     692:	08 95       	ret

00000694 <fSupply_Off>:
  //  v_OLed_Manual = LED_GRATE;
  //  mClrTimer(fMenuInit);
}

void fSupply_Off(void)
{
     694:	08 95       	ret

00000696 <fScrew_R_On>:
}


/* Выгрузка топлива в ручном режиме */
void fScrew_R_On(void)
{
     696:	08 95       	ret

00000698 <fScrew_L_On>:
  //  v_OLed_Manual = (LED_UNLOAD);
  //  mClrTimer(fMenuInit);
}

void fScrew_L_On(void)
{
     698:	08 95       	ret

0000069a <fGrate_On>:

void fGrate_On(void)
{
  volatile Flg_t *pFlg = (Flg_t*)(&gFlagsL); /* Инициализация указателя на структуру флагов */
  static u08 tmpGrateCnt100s;
  mSetTimerTask(fGrate_On, 100 _s);
     69a:	60 e1       	ldi	r22, 0x10	; 16
     69c:	77 e2       	ldi	r23, 0x27	; 39
     69e:	82 e1       	ldi	r24, 0x12	; 18
     6a0:	0e 94 45 0e 	call	0x1c8a	; 0x1c8a <krSetTimer>
  tmpGrateCnt100s++;
     6a4:	80 91 8b 00 	lds	r24, 0x008B
     6a8:	8f 5f       	subi	r24, 0xFF	; 255

  if (tmpGrateCnt100s >= 18) {
     6aa:	82 31       	cpi	r24, 0x12	; 18
     6ac:	18 f4       	brcc	.+6      	; 0x6b4 <fGrate_On+0x1a>
void fGrate_On(void)
{
  volatile Flg_t *pFlg = (Flg_t*)(&gFlagsL); /* Инициализация указателя на структуру флагов */
  static u08 tmpGrateCnt100s;
  mSetTimerTask(fGrate_On, 100 _s);
  tmpGrateCnt100s++;
     6ae:	80 93 8b 00 	sts	0x008B, r24
     6b2:	08 95       	ret

  if (tmpGrateCnt100s >= 18) {
    tmpGrateCnt100s = 0;
     6b4:	10 92 8b 00 	sts	0x008B, r1
    pFlg->Grate = 1;
     6b8:	04 9a       	sbi	0x00, 4	; 0
     6ba:	08 95       	ret

000006bc <fClean_On>:
}



void fClean_On(void)
{
     6bc:	08 95       	ret

000006be <fTEN_On>:
}



void fTEN_On(void)
{
     6be:	08 95       	ret

000006c0 <fFan_On>:
  //  v_OLed_Manual = (LED_TEN);
  //  mClrTimer(fMenuInit);
}

void fFan_On(void)
{
     6c0:	08 95       	ret

000006c2 <fPump_On>:
  //  mClrTimer(fMenuInit);
}


void fPump_On(void)
{
     6c2:	08 95       	ret

000006c4 <fWait_Time_2Next>:
  //  mClrTimer(fMenuInit);
}

void fWait_Time_2Next(void)
{
  vState = vStateNext;
     6c4:	80 91 95 00 	lds	r24, 0x0095
     6c8:	90 91 96 00 	lds	r25, 0x0096
     6cc:	90 93 98 00 	sts	0x0098, r25
     6d0:	80 93 97 00 	sts	0x0097, r24
     6d4:	08 95       	ret

000006d6 <fAlarm_On>:
}

void fAlarm_On(void)
{
     6d6:	08 95       	ret

000006d8 <fManual_Off>:
  //  v_OLed_Manual = (LED_FAULT);
  //  mClrTimer(fMenuInit);
}
void fManual_Off(void)
{
  v_ORele_Manual = (0);
     6d8:	10 92 a9 00 	sts	0x00A9, r1
  v_OLed_Manual = (0);
     6dc:	10 92 f6 00 	sts	0x00F6, r1
     6e0:	08 95       	ret

000006e2 <fBunker_Load_TimeOut>:
}


void fBunker_Load_TimeOut(void)
{
  mRK_Off(K_BUNKER);
     6e2:	80 91 e5 00 	lds	r24, 0x00E5
     6e6:	8f 7d       	andi	r24, 0xDF	; 223
     6e8:	80 93 e5 00 	sts	0x00E5, r24
  vState = FAULT_LOAD;
     6ec:	83 e1       	ldi	r24, 0x13	; 19
     6ee:	90 e0       	ldi	r25, 0x00	; 0
     6f0:	90 93 98 00 	sts	0x0098, r25
     6f4:	80 93 97 00 	sts	0x0097, r24
  pszError = (u08*)&szFaultFuel[0];
     6f8:	8e e7       	ldi	r24, 0x7E	; 126
     6fa:	90 e0       	ldi	r25, 0x00	; 0
     6fc:	90 93 a5 00 	sts	0x00A5, r25
     700:	80 93 a4 00 	sts	0x00A4, r24
  vStateNext = FAULT;
     704:	8d e0       	ldi	r24, 0x0D	; 13
     706:	90 e0       	ldi	r25, 0x00	; 0
     708:	90 93 96 00 	sts	0x0096, r25
     70c:	80 93 95 00 	sts	0x0095, r24
  mSetTimerTask(fWait_Time_2Next, vSets_com.BlowTime * FreqOS);
     710:	80 91 fb 01 	lds	r24, 0x01FB
     714:	90 91 fc 01 	lds	r25, 0x01FC
     718:	24 e6       	ldi	r18, 0x64	; 100
     71a:	28 9f       	mul	r18, r24
     71c:	b0 01       	movw	r22, r0
     71e:	29 9f       	mul	r18, r25
     720:	70 0d       	add	r23, r0
     722:	11 24       	eor	r1, r1
     724:	83 e1       	ldi	r24, 0x13	; 19
     726:	0c 94 45 0e 	jmp	0x1c8a	; 0x1c8a <krSetTimer>

0000072a <fTEN_AirOn>:
}


void fTEN_AirOn(void)
{
     72a:	08 95       	ret

0000072c <fTEN_OnTimeLeft>:
}

void fTEN_OnTimeLeft(void)
{
     72c:	08 95       	ret

0000072e <fFuelOn>:
}

void fFuelOn(void)
{
  v_Param.Fuel = 1;
     72e:	81 e0       	ldi	r24, 0x01	; 1
     730:	80 93 de 00 	sts	0x00DE, r24
     734:	08 95       	ret

00000736 <f_Go2IGN_UNLOAD>:
}

void f_Go2IGN_UNLOAD(u08 N_Uld, eSTATE_t Wait2Next, eSTATE_t NextTime,u16 Time)
{
  v_N_Unload = N_Uld;                                     /* Кол-во оборотов шнека выгрузки */
     736:	80 93 ca 01 	sts	0x01CA, r24
  vStateNext = NextTime;
     73a:	50 93 96 00 	sts	0x0096, r21
     73e:	40 93 95 00 	sts	0x0095, r20
  vStateNextTime = Time;
     742:	30 93 c7 01 	sts	0x01C7, r19
     746:	20 93 c6 01 	sts	0x01C6, r18
  vState = IGN_UNLOAD;
     74a:	82 e0       	ldi	r24, 0x02	; 2
     74c:	90 e0       	ldi	r25, 0x00	; 0
     74e:	90 93 98 00 	sts	0x0098, r25
     752:	80 93 97 00 	sts	0x0097, r24
  vStateForWait = Wait2Next;
     756:	70 93 c9 01 	sts	0x01C9, r23
     75a:	60 93 c8 01 	sts	0x01C8, r22
     75e:	08 95       	ret

00000760 <fRunStop>:

void fRunStop(void)
{
  volatile Flg_t *pFlg = (Flg_t*)(&gFlagsL);  // Инициализация указателя на структуру флагов /

  switch (vState) {
     760:	80 91 97 00 	lds	r24, 0x0097
     764:	90 91 98 00 	lds	r25, 0x0098
     768:	8c 30       	cpi	r24, 0x0C	; 12
     76a:	91 05       	cpc	r25, r1
     76c:	31 f0       	breq	.+12     	; 0x77a <fRunStop+0x1a>
     76e:	84 31       	cpi	r24, 0x14	; 20
     770:	91 05       	cpc	r25, r1
     772:	59 f0       	breq	.+22     	; 0x78a <fRunStop+0x2a>
     774:	89 2b       	or	r24, r25
     776:	c1 f5       	brne	.+112    	; 0x7e8 <fRunStop+0x88>
     778:	08 c0       	rjmp	.+16     	; 0x78a <fRunStop+0x2a>
    case AFTERBURN: {
        mClrTimer(fRunStop);  /* Остановим таймер  */
     77a:	81 e0       	ldi	r24, 0x01	; 1
     77c:	0e 94 98 0e 	call	0x1d30	; 0x1d30 <krClrTimer>
        vState = STOP;
     780:	10 92 98 00 	sts	0x0098, r1
     784:	10 92 97 00 	sts	0x0097, r1
        break;
     788:	08 95       	ret
      }

    case AUTORUN:
    case STOP: {
        fMenuInit();                      /* Инициализация меню, чтение сохраненных настроек */
     78a:	0e 94 7c 09 	call	0x12f8	; 0x12f8 <fMenuInit>

        if (pFlg->CfgOK) {
     78e:	01 9b       	sbis	0x00, 1	; 0
     790:	45 c0       	rjmp	.+138    	; 0x81c <fRunStop+0xbc>
  static volatile  u32 vCCW_Time;
  static volatile  u32 vCW_TimeOut;
  static volatile  u32 v_Pause_Timer;

  if (vFSM) {
    FSM_CleanScrew = vFSM;
     792:	81 e0       	ldi	r24, 0x01	; 1
     794:	90 e0       	ldi	r25, 0x00	; 0
     796:	90 93 65 00 	sts	0x0065, r25
     79a:	80 93 64 00 	sts	0x0064, r24
u08 f_FSM_Grate(eFSM_Grate_t vFSM)
{
  static volatile  eFSM_Grate_t FSM_Grate = GRT_INIT;

  if (vFSM) {
    FSM_Grate = vFSM;
     79e:	90 93 61 00 	sts	0x0061, r25
     7a2:	80 93 60 00 	sts	0x0060, r24
  //  static volatile  u32 vUnloadTime;
  static u08 N_Unload_Old;
  static volatile  eFSM_Unload_t FSM_Unload;

  if (vFSM) {
    FSM_Unload = vFSM;
     7a6:	90 93 8a 00 	sts	0x008A, r25
     7aa:	80 93 89 00 	sts	0x0089, r24
        if (pFlg->CfgOK) {
          //          flg_BRN_GRATE = vSets.N_Grate;
          f_FSM_CleanScrew(CLN_INIT);
          f_FSM_Grate(GRT_INIT);
          f_FSM_Unload(UNLD_INIT);
          f_Go2IGN_UNLOAD(vSets.N_Ignition,IGN_TEN, IGN_TEN_ULD_5MIN, 5 * 60 _s);
     7ae:	80 91 ef 01 	lds	r24, 0x01EF
     7b2:	80 93 ca 01 	sts	0x01CA, r24
}

void f_Go2IGN_UNLOAD(u08 N_Uld, eSTATE_t Wait2Next, eSTATE_t NextTime,u16 Time)
{
  v_N_Unload = N_Uld;                                     /* Кол-во оборотов шнека выгрузки */
  vStateNext = NextTime;
     7b6:	84 e0       	ldi	r24, 0x04	; 4
     7b8:	90 e0       	ldi	r25, 0x00	; 0
     7ba:	90 93 96 00 	sts	0x0096, r25
     7be:	80 93 95 00 	sts	0x0095, r24
  vStateNextTime = Time;
     7c2:	80 e3       	ldi	r24, 0x30	; 48
     7c4:	95 e7       	ldi	r25, 0x75	; 117
     7c6:	90 93 c7 01 	sts	0x01C7, r25
     7ca:	80 93 c6 01 	sts	0x01C6, r24
  vState = IGN_UNLOAD;
     7ce:	82 e0       	ldi	r24, 0x02	; 2
     7d0:	90 e0       	ldi	r25, 0x00	; 0
     7d2:	90 93 98 00 	sts	0x0098, r25
     7d6:	80 93 97 00 	sts	0x0097, r24
  vStateForWait = Wait2Next;
     7da:	83 e0       	ldi	r24, 0x03	; 3
     7dc:	90 e0       	ldi	r25, 0x00	; 0
     7de:	90 93 c9 01 	sts	0x01C9, r25
     7e2:	80 93 c8 01 	sts	0x01C8, r24
     7e6:	08 95       	ret
        break;
      }

    default: {
        //fBuzOff();
        mPinIn(BUZ);
     7e8:	bb 98       	cbi	0x17, 3	; 23
        vState = AFTERBURN;
     7ea:	8c e0       	ldi	r24, 0x0C	; 12
     7ec:	90 e0       	ldi	r25, 0x00	; 0
     7ee:	90 93 98 00 	sts	0x0098, r25
     7f2:	80 93 97 00 	sts	0x0097, r24
        mClrTimer(fReUnload_On);  /* Остановим таймер  */
     7f6:	80 e1       	ldi	r24, 0x10	; 16
     7f8:	0e 94 98 0e 	call	0x1d30	; 0x1d30 <krClrTimer>
        mSetTimerTask(fRunStop, vSets_com.BlowTime * FreqOS);
     7fc:	80 91 fb 01 	lds	r24, 0x01FB
     800:	90 91 fc 01 	lds	r25, 0x01FC
     804:	24 e6       	ldi	r18, 0x64	; 100
     806:	28 9f       	mul	r18, r24
     808:	b0 01       	movw	r22, r0
     80a:	29 9f       	mul	r18, r25
     80c:	70 0d       	add	r23, r0
     80e:	11 24       	eor	r1, r1
     810:	81 e0       	ldi	r24, 0x01	; 1
     812:	0e 94 45 0e 	call	0x1c8a	; 0x1c8a <krSetTimer>
        TimerTaskID = GetTaskID(fRunStop);
     816:	81 e0       	ldi	r24, 0x01	; 1
     818:	80 93 9a 00 	sts	0x009A, r24
     81c:	08 95       	ret

0000081e <fReUnload_On>:
      }
  }
}

void fReUnload_On(void)
{
     81e:	08 95       	ret

00000820 <fUnload_Off>:
}
void fUnload_Off(void)
{
     820:	08 95       	ret

00000822 <fGetTempLM335>:
  fBunker();
  f_Output();                                          /* Вывод управляющих сигналов на реле */
} /* fControl() */

u16 fGetTempLM335(u16 adc)
{
     822:	cf 93       	push	r28
     824:	df 93       	push	r29
  u16 Temp;
  s32 tmp_adc;
  tmp_adc = adc;
  Temp = (tmp_adc * vSets_com.Uref / 10 / 65536) + vSets_com.T_Offset;
     826:	c7 ef       	ldi	r28, 0xF7	; 247
     828:	d1 e0       	ldi	r29, 0x01	; 1
     82a:	ae 81       	ldd	r26, Y+6	; 0x06
     82c:	bf 81       	ldd	r27, Y+7	; 0x07
     82e:	9c 01       	movw	r18, r24
     830:	0e 94 48 10 	call	0x2090	; 0x2090 <__umulhisi3>
     834:	20 e0       	ldi	r18, 0x00	; 0
     836:	30 e0       	ldi	r19, 0x00	; 0
     838:	4a e0       	ldi	r20, 0x0A	; 10
     83a:	50 e0       	ldi	r21, 0x00	; 0
     83c:	0e 94 23 10 	call	0x2046	; 0x2046 <__divmodsi4>
     840:	88 85       	ldd	r24, Y+8	; 0x08
     842:	99 85       	ldd	r25, Y+9	; 0x09
     844:	82 0f       	add	r24, r18
     846:	93 1f       	adc	r25, r19
  return Temp;
}
     848:	df 91       	pop	r29
     84a:	cf 91       	pop	r28
     84c:	08 95       	ret

0000084e <fGetTempPt100>:

u16 fGetTempPt100(u16 adc)
{
     84e:	cf 93       	push	r28
     850:	df 93       	push	r29
  u16 Temp;
  s32 tmp_adc;
  tmp_adc = adc;
  Temp = (tmp_adc * vSets_com.Uref / 10 / 65536) + vSets_com.T_Offset;
     852:	c7 ef       	ldi	r28, 0xF7	; 247
     854:	d1 e0       	ldi	r29, 0x01	; 1
     856:	ae 81       	ldd	r26, Y+6	; 0x06
     858:	bf 81       	ldd	r27, Y+7	; 0x07
     85a:	9c 01       	movw	r18, r24
     85c:	0e 94 48 10 	call	0x2090	; 0x2090 <__umulhisi3>
     860:	20 e0       	ldi	r18, 0x00	; 0
     862:	30 e0       	ldi	r19, 0x00	; 0
     864:	4a e0       	ldi	r20, 0x0A	; 10
     866:	50 e0       	ldi	r21, 0x00	; 0
     868:	0e 94 23 10 	call	0x2046	; 0x2046 <__divmodsi4>
     86c:	88 85       	ldd	r24, Y+8	; 0x08
     86e:	99 85       	ldd	r25, Y+9	; 0x09
     870:	82 0f       	add	r24, r18
     872:	93 1f       	adc	r25, r19
  return Temp;
}
     874:	df 91       	pop	r29
     876:	cf 91       	pop	r28
     878:	08 95       	ret

0000087a <fGetADC_from_TempLM335>:
{
  u16 ADC_Temp;
  s32 tmp_Temp;
  //Temp = (ADC_Temp * vSets_com.Uref / 10 / 65536) + vSets_com.T_Offset;
  //ADC_Temp  = (Temp - vSets_com.T_Offset) * 65536 * 10 / vSets_com.Uref ;
  tmp_Temp = (Temp - vSets_com.T_Offset);
     87a:	e7 ef       	ldi	r30, 0xF7	; 247
     87c:	f1 e0       	ldi	r31, 0x01	; 1
     87e:	20 85       	ldd	r18, Z+8	; 0x08
     880:	31 85       	ldd	r19, Z+9	; 0x09
     882:	dc 01       	movw	r26, r24
     884:	a2 1b       	sub	r26, r18
     886:	b3 0b       	sbc	r27, r19
  ADC_Temp  = tmp_Temp * 65536 * 10 / vSets_com.Uref;
     888:	20 e0       	ldi	r18, 0x00	; 0
     88a:	30 e0       	ldi	r19, 0x00	; 0
     88c:	4a e0       	ldi	r20, 0x0A	; 10
     88e:	50 e0       	ldi	r21, 0x00	; 0
     890:	0e 94 57 10 	call	0x20ae	; 0x20ae <__muluhisi3>
     894:	26 81       	ldd	r18, Z+6	; 0x06
     896:	37 81       	ldd	r19, Z+7	; 0x07
     898:	40 e0       	ldi	r20, 0x00	; 0
     89a:	50 e0       	ldi	r21, 0x00	; 0
     89c:	0e 94 23 10 	call	0x2046	; 0x2046 <__divmodsi4>
  return ADC_Temp;
}
     8a0:	c9 01       	movw	r24, r18
     8a2:	08 95       	ret

000008a4 <f_Output>:

void f_Output(void)
{
  v_OLed |= v_OLed_Manual;
     8a4:	90 91 99 00 	lds	r25, 0x0099
     8a8:	80 91 f6 00 	lds	r24, 0x00F6
     8ac:	89 2b       	or	r24, r25
     8ae:	80 93 99 00 	sts	0x0099, r24
  v_ORele |= v_ORele_Manual;
     8b2:	60 91 a9 00 	lds	r22, 0x00A9
     8b6:	80 91 e5 00 	lds	r24, 0x00E5
     8ba:	68 2b       	or	r22, r24
     8bc:	60 93 e5 00 	sts	0x00E5, r22
  //  v_LED3Buf[0] = fB27S(vState);
  //  v_LED3Buf[0] = v_OLed;
  fOut_vPort(2, v_ORele, IDPORT);
     8c0:	40 e0       	ldi	r20, 0x00	; 0
     8c2:	50 e0       	ldi	r21, 0x00	; 0
     8c4:	82 e0       	ldi	r24, 0x02	; 2
     8c6:	0c 94 34 0b 	jmp	0x1668	; 0x1668 <fOut_vPort>

000008ca <f_Input>:
}
void f_Input(void)
{
     8ca:	08 95       	ret

000008cc <fCntScrew>:
}

void fCntScrew(void)
{
  v_CntUnld++;
     8cc:	80 91 a6 00 	lds	r24, 0x00A6
     8d0:	8f 5f       	subi	r24, 0xFF	; 255
     8d2:	80 93 a6 00 	sts	0x00A6, r24
     8d6:	08 95       	ret

000008d8 <f_FSM_Unload>:
  static volatile  u32 vUnloadTimeOut;
  //  static volatile  u32 vUnloadTime;
  static u08 N_Unload_Old;
  static volatile  eFSM_Unload_t FSM_Unload;

  if (vFSM) {
     8d8:	00 97       	sbiw	r24, 0x00	; 0
     8da:	11 f4       	brne	.+4      	; 0x8e0 <f_FSM_Unload+0x8>
     8dc:	0c 94 1d 02 	jmp	0x43a	; 0x43a <f_FSM_Unload.part.1>
    FSM_Unload = vFSM;
     8e0:	90 93 8a 00 	sts	0x008A, r25
     8e4:	80 93 89 00 	sts	0x0089, r24
      }
      break;
  }

  return 0;
}
     8e8:	80 e0       	ldi	r24, 0x00	; 0
     8ea:	08 95       	ret

000008ec <f_FSM_CleanScrew>:
  static volatile  eFSM_CleanScrew_t FSM_CleanScrew = CLR_INIT;
  static volatile  u32 vCCW_Time;
  static volatile  u32 vCW_TimeOut;
  static volatile  u32 v_Pause_Timer;

  if (vFSM) {
     8ec:	00 97       	sbiw	r24, 0x00	; 0
     8ee:	11 f4       	brne	.+4      	; 0x8f4 <f_FSM_CleanScrew+0x8>
     8f0:	0c 94 f0 00 	jmp	0x1e0	; 0x1e0 <f_FSM_CleanScrew.part.0>
    FSM_CleanScrew = vFSM;
     8f4:	90 93 65 00 	sts	0x0065, r25
     8f8:	80 93 64 00 	sts	0x0064, r24
      }
      break;
  }

  return 0;
}
     8fc:	80 e0       	ldi	r24, 0x00	; 0
     8fe:	08 95       	ret

00000900 <f_FSM_Grate>:

u08 f_FSM_Grate(eFSM_Grate_t vFSM)
{
  static volatile  eFSM_Grate_t FSM_Grate = GRT_INIT;

  if (vFSM) {
     900:	00 97       	sbiw	r24, 0x00	; 0
     902:	29 f0       	breq	.+10     	; 0x90e <f_FSM_Grate+0xe>
    FSM_Grate = vFSM;
     904:	90 93 61 00 	sts	0x0061, r25
     908:	80 93 60 00 	sts	0x0060, r24
     90c:	4b c0       	rjmp	.+150    	; 0x9a4 <f_FSM_Grate+0xa4>
    return 0;
  }

  switch (FSM_Grate) {
     90e:	80 91 60 00 	lds	r24, 0x0060
     912:	90 91 61 00 	lds	r25, 0x0061
     916:	81 30       	cpi	r24, 0x01	; 1
     918:	91 05       	cpc	r25, r1
     91a:	19 f0       	breq	.+6      	; 0x922 <f_FSM_Grate+0x22>
     91c:	02 97       	sbiw	r24, 0x02	; 2
     91e:	09 f1       	breq	.+66     	; 0x962 <f_FSM_Grate+0x62>
     920:	41 c0       	rjmp	.+130    	; 0x9a4 <f_FSM_Grate+0xa4>
    case GRT_INIT: {
        mRK_Off(K_GRATE);
     922:	80 91 e5 00 	lds	r24, 0x00E5
     926:	8f 7e       	andi	r24, 0xEF	; 239
     928:	80 93 e5 00 	sts	0x00E5, r24
        FSM_Grate = GRT_ON;
     92c:	82 e0       	ldi	r24, 0x02	; 2
     92e:	90 e0       	ldi	r25, 0x00	; 0
     930:	90 93 61 00 	sts	0x0061, r25
     934:	80 93 60 00 	sts	0x0060, r24
        v_Time = vOS_Tick + 5 _s;
     938:	80 91 e1 01 	lds	r24, 0x01E1
     93c:	90 91 e2 01 	lds	r25, 0x01E2
     940:	a0 91 e3 01 	lds	r26, 0x01E3
     944:	b0 91 e4 01 	lds	r27, 0x01E4
     948:	8c 50       	subi	r24, 0x0C	; 12
     94a:	9e 4f       	sbci	r25, 0xFE	; 254
     94c:	af 4f       	sbci	r26, 0xFF	; 255
     94e:	bf 4f       	sbci	r27, 0xFF	; 255
     950:	80 93 df 00 	sts	0x00DF, r24
     954:	90 93 e0 00 	sts	0x00E0, r25
     958:	a0 93 e1 00 	sts	0x00E1, r26
     95c:	b0 93 e2 00 	sts	0x00E2, r27
     960:	21 c0       	rjmp	.+66     	; 0x9a4 <f_FSM_Grate+0xa4>
        break;
      }

    case GRT_ON: {
        mRK_On(K_GRATE);
     962:	80 91 e5 00 	lds	r24, 0x00E5
     966:	80 61       	ori	r24, 0x10	; 16
     968:	80 93 e5 00 	sts	0x00E5, r24

        if (vOS_Tick >= v_Time) {
     96c:	40 91 e1 01 	lds	r20, 0x01E1
     970:	50 91 e2 01 	lds	r21, 0x01E2
     974:	60 91 e3 01 	lds	r22, 0x01E3
     978:	70 91 e4 01 	lds	r23, 0x01E4
     97c:	80 91 df 00 	lds	r24, 0x00DF
     980:	90 91 e0 00 	lds	r25, 0x00E0
     984:	a0 91 e1 00 	lds	r26, 0x00E1
     988:	b0 91 e2 00 	lds	r27, 0x00E2
     98c:	48 17       	cp	r20, r24
     98e:	59 07       	cpc	r21, r25
     990:	6a 07       	cpc	r22, r26
     992:	7b 07       	cpc	r23, r27
     994:	38 f0       	brcs	.+14     	; 0x9a4 <f_FSM_Grate+0xa4>
          FSM_Grate  = GRT_INIT;
     996:	81 e0       	ldi	r24, 0x01	; 1
     998:	90 e0       	ldi	r25, 0x00	; 0
     99a:	90 93 61 00 	sts	0x0061, r25
     99e:	80 93 60 00 	sts	0x0060, r24
     9a2:	08 95       	ret
    default: {
        break;
      }
  }

  return 0;
     9a4:	80 e0       	ldi	r24, 0x00	; 0
}
     9a6:	08 95       	ret

000009a8 <f_CheckTempr>:
u08 f_CheckTempr(void)   /* Контроль границ температурного режима объекта */
{
  if (v_Param.TS1 <= (273 + vSets.Temp1)) {   /* Температура котла и   */
     9a8:	20 91 eb 01 	lds	r18, 0x01EB
     9ac:	30 91 ec 01 	lds	r19, 0x01EC
     9b0:	2f 5e       	subi	r18, 0xEF	; 239
     9b2:	3e 4f       	sbci	r19, 0xFE	; 254
     9b4:	81 e0       	ldi	r24, 0x01	; 1
     9b6:	40 91 d8 00 	lds	r20, 0x00D8
     9ba:	50 91 d9 00 	lds	r21, 0x00D9
     9be:	24 17       	cp	r18, r20
     9c0:	35 07       	cpc	r19, r21
     9c2:	08 f0       	brcs	.+2      	; 0x9c6 <f_CheckTempr+0x1e>
     9c4:	80 e0       	ldi	r24, 0x00	; 0
    /* в норме */
    return 0;
  }

  return 1;
}
     9c6:	08 95       	ret

000009c8 <f_FSM_Alarm>:

u08 f_FSM_Alarm(u08 vFSM)
{
  static volatile eFSM_Alarm_t FSM_Alarm = ALARM_INIT;

  if (vFSM) {
     9c8:	88 23       	and	r24, r24
     9ca:	39 f0       	breq	.+14     	; 0x9da <f_FSM_Alarm+0x12>
    FSM_Alarm = vFSM;
     9cc:	90 e0       	ldi	r25, 0x00	; 0
     9ce:	90 93 63 00 	sts	0x0063, r25
     9d2:	80 93 62 00 	sts	0x0062, r24
    return 0;
     9d6:	80 e0       	ldi	r24, 0x00	; 0
     9d8:	08 95       	ret
  }

  switch (FSM_Alarm) {
     9da:	80 91 62 00 	lds	r24, 0x0062
     9de:	90 91 63 00 	lds	r25, 0x0063
     9e2:	81 30       	cpi	r24, 0x01	; 1
     9e4:	91 05       	cpc	r25, r1
     9e6:	19 f0       	breq	.+6      	; 0x9ee <f_FSM_Alarm+0x26>
     9e8:	02 97       	sbiw	r24, 0x02	; 2
     9ea:	61 f0       	breq	.+24     	; 0xa04 <f_FSM_Alarm+0x3c>
     9ec:	1a c0       	rjmp	.+52     	; 0xa22 <f_FSM_Alarm+0x5a>
    case ALARM_INIT: {
        if (f_CheckTempr()) {               /* Контроль границ температурного режима объекта */
     9ee:	0e 94 d4 04 	call	0x9a8	; 0x9a8 <f_CheckTempr>
     9f2:	88 23       	and	r24, r24
     9f4:	b1 f0       	breq	.+44     	; 0xa22 <f_FSM_Alarm+0x5a>
          /* Температура за пределами установленных границ */
          FSM_Alarm = ALARM_ON;
     9f6:	82 e0       	ldi	r24, 0x02	; 2
     9f8:	90 e0       	ldi	r25, 0x00	; 0
     9fa:	90 93 63 00 	sts	0x0063, r25
     9fe:	80 93 62 00 	sts	0x0062, r24
     a02:	0f c0       	rjmp	.+30     	; 0xa22 <f_FSM_Alarm+0x5a>

        break;
      }

    case ALARM_ON: {
        fBuzSound(0b0101);
     a04:	85 e0       	ldi	r24, 0x05	; 5
     a06:	0e 94 3f 03 	call	0x67e	; 0x67e <fBuzSound>

        if (!f_CheckTempr()) {                                       /* Температура        */
     a0a:	0e 94 d4 04 	call	0x9a8	; 0x9a8 <f_CheckTempr>
     a0e:	81 11       	cpse	r24, r1
     a10:	08 c0       	rjmp	.+16     	; 0xa22 <f_FSM_Alarm+0x5a>
          /* в норме            */
          FSM_Alarm = ALARM_INIT;
     a12:	81 e0       	ldi	r24, 0x01	; 1
     a14:	90 e0       	ldi	r25, 0x00	; 0
     a16:	90 93 63 00 	sts	0x0063, r25
     a1a:	80 93 62 00 	sts	0x0062, r24
          fBuzOff();
     a1e:	0e 94 9b 0c 	call	0x1936	; 0x1936 <fBuzOff>
    default: {
        break;
      }
  }

  return 1;
     a22:	81 e0       	ldi	r24, 0x01	; 1
}
     a24:	08 95       	ret

00000a26 <fBunker>:
//#define LEVEL_EMPTY ((MAX_U16*1UL)/3)
//#define LEVEL_FULL ((MAX_U16*2UL)/3)
void fBunker(void)
{
  volatile Flg_t *pFlg = (Flg_t*)(&gFlagsL); /* Инициализация указателя на структуру флагов */
  v_Param.AI_Pellet = v_ADC[2];
     a26:	20 91 91 00 	lds	r18, 0x0091
     a2a:	30 91 92 00 	lds	r19, 0x0092
     a2e:	30 93 dd 00 	sts	0x00DD, r19
     a32:	20 93 dc 00 	sts	0x00DC, r18

  if (1) {                        /* Работаем с датчиком подачи топлива */
    switch (vState) {
     a36:	80 91 97 00 	lds	r24, 0x0097
     a3a:	90 91 98 00 	lds	r25, 0x0098
     a3e:	8f 30       	cpi	r24, 0x0F	; 15
     a40:	91 05       	cpc	r25, r1
     a42:	30 f4       	brcc	.+12     	; 0xa50 <fBunker+0x2a>
     a44:	8c 30       	cpi	r24, 0x0C	; 12
     a46:	91 05       	cpc	r25, r1
     a48:	48 f4       	brcc	.+18     	; 0xa5c <fBunker+0x36>
     a4a:	89 2b       	or	r24, r25
     a4c:	f1 f4       	brne	.+60     	; 0xa8a <fBunker+0x64>
     a4e:	06 c0       	rjmp	.+12     	; 0xa5c <fBunker+0x36>
     a50:	83 31       	cpi	r24, 0x13	; 19
     a52:	91 05       	cpc	r25, r1
     a54:	19 f0       	breq	.+6      	; 0xa5c <fBunker+0x36>
     a56:	45 97       	sbiw	r24, 0x15	; 21
     a58:	49 f1       	breq	.+82     	; 0xaac <fBunker+0x86>
     a5a:	17 c0       	rjmp	.+46     	; 0xa8a <fBunker+0x64>
      case AFTERBURN:
      case FAULT_SCREW:
      case FAULT_LOAD:
      case FAULT:
      case STOP: {
          mRK_Off(K_BUNKER);
     a5c:	80 91 e5 00 	lds	r24, 0x00E5
     a60:	8f 7d       	andi	r24, 0xDF	; 223
     a62:	80 93 e5 00 	sts	0x00E5, r24
          mClrTimer(fBunker_Load_TimeOut);
     a66:	86 e0       	ldi	r24, 0x06	; 6
     a68:	0e 94 98 0e 	call	0x1d30	; 0x1d30 <krClrTimer>

          if (v_Param.AI_Pellet < LEVEL_EMPTY) { /* Контроль  */
     a6c:	80 91 dc 00 	lds	r24, 0x00DC
     a70:	90 91 dd 00 	lds	r25, 0x00DD
     a74:	80 3f       	cpi	r24, 0xF0	; 240
     a76:	25 e5       	ldi	r18, 0x55	; 85
     a78:	92 07       	cpc	r25, r18
     a7a:	10 f4       	brcc	.+4      	; 0xa80 <fBunker+0x5a>
            pFlg->FuelOK = 0;
     a7c:	00 98       	cbi	0x00, 0	; 0
     a7e:	08 95       	ret
          } else if (v_Param.AI_Pellet > LEVEL_FULL) { /* Контроль  */
     a80:	81 36       	cpi	r24, 0x61	; 97
     a82:	9a 4e       	sbci	r25, 0xEA	; 234
     a84:	98 f0       	brcs	.+38     	; 0xaac <fBunker+0x86>
            pFlg->FuelOK = 1;
     a86:	00 9a       	sbi	0x00, 0	; 0
     a88:	08 95       	ret
      case TEST: {
          break;
        }

      default: {
          if (v_Param.AI_Pellet < LEVEL_EMPTY) { /* Контроль  */
     a8a:	20 3f       	cpi	r18, 0xF0	; 240
     a8c:	85 e5       	ldi	r24, 0x55	; 85
     a8e:	38 07       	cpc	r19, r24
     a90:	30 f4       	brcc	.+12     	; 0xa9e <fBunker+0x78>
            pFlg->FuelOK = 0;
     a92:	00 98       	cbi	0x00, 0	; 0
            mSetTimerTask(fBunker_Load_TimeOut, T_BUNKER);
     a94:	68 eb       	ldi	r22, 0xB8	; 184
     a96:	7b e0       	ldi	r23, 0x0B	; 11
     a98:	86 e0       	ldi	r24, 0x06	; 6
     a9a:	0c 94 45 0e 	jmp	0x1c8a	; 0x1c8a <krSetTimer>
          } else if (v_Param.AI_Pellet > LEVEL_FULL) { /* Контроль  */
     a9e:	21 36       	cpi	r18, 0x61	; 97
     aa0:	3a 4e       	sbci	r19, 0xEA	; 234
     aa2:	20 f0       	brcs	.+8      	; 0xaac <fBunker+0x86>
            pFlg->FuelOK = 1;
     aa4:	00 9a       	sbi	0x00, 0	; 0
            mClrTimer(fBunker_Load_TimeOut);
     aa6:	86 e0       	ldi	r24, 0x06	; 6
     aa8:	0c 94 98 0e 	jmp	0x1d30	; 0x1d30 <krClrTimer>
     aac:	08 95       	ret

00000aae <fOffAllRele>:
  }
}
void fOffAllRele(void)
{
  if (1) {                        /* Работаем с датчиком подачи топлива */
    v_ORele &= (K_BUNKER);
     aae:	80 91 e5 00 	lds	r24, 0x00E5
     ab2:	80 72       	andi	r24, 0x20	; 32
     ab4:	80 93 e5 00 	sts	0x00E5, r24
     ab8:	08 95       	ret

00000aba <fControl>:
{
}

/** Основная функция управления горелкой */
void fControl(void)
{
     aba:	cf 93       	push	r28
     abc:	df 93       	push	r29
  volatile Flg_t *pFlg = (Flg_t*)(&gFlagsL); /* Инициализация указателя на структуру флагов */
  v_Param.TS1 = fGetTempLM335(v_ADC[0]);
     abe:	c0 91 8d 00 	lds	r28, 0x008D
     ac2:	d0 91 8e 00 	lds	r29, 0x008E
     ac6:	ce 01       	movw	r24, r28
     ac8:	0e 94 11 04 	call	0x822	; 0x822 <fGetTempLM335>
     acc:	90 93 d9 00 	sts	0x00D9, r25
     ad0:	80 93 d8 00 	sts	0x00D8, r24
  v_Param.TS2 = fGetTempLM335(v_ADC[1]);
     ad4:	80 91 8f 00 	lds	r24, 0x008F
     ad8:	90 91 90 00 	lds	r25, 0x0090
     adc:	0e 94 11 04 	call	0x822	; 0x822 <fGetTempLM335>
     ae0:	90 93 db 00 	sts	0x00DB, r25
     ae4:	80 93 da 00 	sts	0x00DA, r24

  //{ Расчет коэффициента мощности:                                              vRegParam.Kpow
  if (vRegParam.ADC_Temp >= v_ADC[0]) {
     ae8:	20 91 c0 01 	lds	r18, 0x01C0
     aec:	30 91 c1 01 	lds	r19, 0x01C1
     af0:	2c 17       	cp	r18, r28
     af2:	3d 07       	cpc	r19, r29
     af4:	90 f0       	brcs	.+36     	; 0xb1a <fControl+0x60>
    vRegParam.Kpow = (vRegParam.ADC_Temp - v_ADC[0]) / 16;
     af6:	c9 01       	movw	r24, r18
     af8:	8c 1b       	sub	r24, r28
     afa:	9d 0b       	sbc	r25, r29
     afc:	24 e0       	ldi	r18, 0x04	; 4
     afe:	96 95       	lsr	r25
     b00:	87 95       	ror	r24
     b02:	2a 95       	dec	r18
     b04:	e1 f7       	brne	.-8      	; 0xafe <fControl+0x44>

    if (vRegParam.Kpow > 100) {
     b06:	85 36       	cpi	r24, 0x65	; 101
     b08:	91 05       	cpc	r25, r1
     b0a:	10 f0       	brcs	.+4      	; 0xb10 <fControl+0x56>
      vRegParam.Kpow = 100;
     b0c:	84 e6       	ldi	r24, 0x64	; 100
     b0e:	90 e0       	ldi	r25, 0x00	; 0
     b10:	90 93 c5 01 	sts	0x01C5, r25
     b14:	80 93 c4 01 	sts	0x01C4, r24
     b18:	04 c0       	rjmp	.+8      	; 0xb22 <fControl+0x68>
    }
  } else {
    vRegParam.Kpow = 0;
     b1a:	10 92 c5 01 	sts	0x01C5, r1
     b1e:	10 92 c4 01 	sts	0x01C4, r1
  }

  vRegParam.Kpow = vRegParam.Kpow * vSets.Power / 100;
     b22:	40 91 f3 01 	lds	r20, 0x01F3
     b26:	50 91 f4 01 	lds	r21, 0x01F4
     b2a:	20 91 c4 01 	lds	r18, 0x01C4
     b2e:	30 91 c5 01 	lds	r19, 0x01C5
     b32:	42 9f       	mul	r20, r18
     b34:	c0 01       	movw	r24, r0
     b36:	43 9f       	mul	r20, r19
     b38:	90 0d       	add	r25, r0
     b3a:	52 9f       	mul	r21, r18
     b3c:	90 0d       	add	r25, r0
     b3e:	11 24       	eor	r1, r1
     b40:	e4 e6       	ldi	r30, 0x64	; 100
     b42:	f0 e0       	ldi	r31, 0x00	; 0
     b44:	bf 01       	movw	r22, r30
     b46:	0e 94 0f 10 	call	0x201e	; 0x201e <__udivmodhi4>
     b4a:	eb 01       	movw	r28, r22
     b4c:	70 93 c5 01 	sts	0x01C5, r23
     b50:	60 93 c4 01 	sts	0x01C4, r22
  //} Расчет коэффициента мощности
  //{ Расчет кол-ва оборотов шнека для выгрузки топлива в топку:             vRegParam.N_Unload
  vRegParam.N_Unload = (vSets.N_Unload - 1) * vRegParam.Kpow / 100;
     b54:	20 91 e7 01 	lds	r18, 0x01E7
     b58:	30 91 e8 01 	lds	r19, 0x01E8
     b5c:	21 50       	subi	r18, 0x01	; 1
     b5e:	31 09       	sbc	r19, r1
     b60:	62 9f       	mul	r22, r18
     b62:	c0 01       	movw	r24, r0
     b64:	63 9f       	mul	r22, r19
     b66:	90 0d       	add	r25, r0
     b68:	72 9f       	mul	r23, r18
     b6a:	90 0d       	add	r25, r0
     b6c:	11 24       	eor	r1, r1
     b6e:	bf 01       	movw	r22, r30
     b70:	0e 94 0f 10 	call	0x201e	; 0x201e <__udivmodhi4>
  vRegParam.N_Unload = 1 + vRegParam.N_Unload ;
     b74:	6f 5f       	subi	r22, 0xFF	; 255
     b76:	7f 4f       	sbci	r23, 0xFF	; 255
     b78:	70 93 bf 01 	sts	0x01BF, r23
     b7c:	60 93 be 01 	sts	0x01BE, r22
  //} Расчет кол-ва оборотов шнека для выгрузки топлива в топку
  //{ Расчет времени паузы между подачами топлива:                            vRegParam.T_Pause
  vRegParam.T_Pause = (60 - vSets.T_Pause) * vRegParam.Kpow / 100;
     b80:	2c e3       	ldi	r18, 0x3C	; 60
     b82:	30 e0       	ldi	r19, 0x00	; 0
     b84:	80 91 e5 01 	lds	r24, 0x01E5
     b88:	90 91 e6 01 	lds	r25, 0x01E6
     b8c:	a9 01       	movw	r20, r18
     b8e:	48 1b       	sub	r20, r24
     b90:	59 0b       	sbc	r21, r25
     b92:	4c 9f       	mul	r20, r28
     b94:	c0 01       	movw	r24, r0
     b96:	4d 9f       	mul	r20, r29
     b98:	90 0d       	add	r25, r0
     b9a:	5c 9f       	mul	r21, r28
     b9c:	90 0d       	add	r25, r0
     b9e:	11 24       	eor	r1, r1
     ba0:	bf 01       	movw	r22, r30
     ba2:	0e 94 0f 10 	call	0x201e	; 0x201e <__udivmodhi4>
  vRegParam.T_Pause = 60 - vRegParam.T_Pause ;
     ba6:	26 1b       	sub	r18, r22
     ba8:	37 0b       	sbc	r19, r23
     baa:	30 93 bd 01 	sts	0x01BD, r19
     bae:	20 93 bc 01 	sts	0x01BC, r18
  //} Расчет времени паузы между подачами топлива

  switch (vState) {  /* Включаем реле в зависимости от состояния */
     bb2:	e0 91 97 00 	lds	r30, 0x0097
     bb6:	f0 91 98 00 	lds	r31, 0x0098
     bba:	e5 31       	cpi	r30, 0x15	; 21
     bbc:	f1 05       	cpc	r31, r1
     bbe:	08 f0       	brcs	.+2      	; 0xbc2 <fControl+0x108>
     bc0:	a0 c1       	rjmp	.+832    	; 0xf02 <fControl+0x448>
     bc2:	e6 5d       	subi	r30, 0xD6	; 214
     bc4:	ff 4f       	sbci	r31, 0xFF	; 255
     bc6:	0c 94 42 10 	jmp	0x2084	; 0x2084 <__tablejump2__>
    case AUTORUN: {
        fOffAllRele();                                                   /* Отключаем все реле */
     bca:	0e 94 57 05 	call	0xaae	; 0xaae <fOffAllRele>
        break;
     bce:	99 c1       	rjmp	.+818    	; 0xf02 <fControl+0x448>
      }

    case STOP: {
        pszState = (u08*)&szState_x;
     bd0:	8d e8       	ldi	r24, 0x8D	; 141
     bd2:	90 e0       	ldi	r25, 0x00	; 0
     bd4:	90 93 a8 00 	sts	0x00A8, r25
     bd8:	80 93 a7 00 	sts	0x00A7, r24
        fOffAllRele();                                                   /* Отключаем все реле */
     bdc:	0e 94 57 05 	call	0xaae	; 0xaae <fOffAllRele>
        //mClrTimer(fFaultIgnition);
        mClrTimer(fRunStop);
     be0:	81 e0       	ldi	r24, 0x01	; 1
     be2:	0e 94 98 0e 	call	0x1d30	; 0x1d30 <krClrTimer>
        mClrTimer(fWait_Time_2Next);             /* */
     be6:	83 e1       	ldi	r24, 0x13	; 19
     be8:	c3 c0       	rjmp	.+390    	; 0xd70 <fControl+0x2b6>
    //
    //            break;
    //          }

    case IGN_UNLOAD: {
        pszState = (u08*)&szState_U;
     bea:	8c e9       	ldi	r24, 0x9C	; 156
     bec:	90 e0       	ldi	r25, 0x00	; 0
     bee:	90 93 a8 00 	sts	0x00A8, r25
     bf2:	80 93 a7 00 	sts	0x00A7, r24
     bf6:	0e 94 1d 02 	call	0x43a	; 0x43a <f_FSM_Unload.part.1>
        //          vState = vStateNext;
        //        }

        //v_N_Unload  - !!! НЕОБХОДИМО Установить перед переходом в состояние IGN_UNLOAD !!!
        //v_N_Unload = vSets.N_Ignition;/* 8 Кол-во оборотов шнека выгрузки перед розжигом [n] */
        if (f_FSM_Unload(0)) {
     bfa:	88 23       	and	r24, r24
     bfc:	09 f4       	brne	.+2      	; 0xc00 <fControl+0x146>
     bfe:	81 c1       	rjmp	.+770    	; 0xf02 <fControl+0x448>
          if (vState == IGN_UNLOAD) {
     c00:	80 91 97 00 	lds	r24, 0x0097
     c04:	90 91 98 00 	lds	r25, 0x0098
     c08:	02 97       	sbiw	r24, 0x02	; 2
     c0a:	09 f0       	breq	.+2      	; 0xc0e <fControl+0x154>
     c0c:	7a c1       	rjmp	.+756    	; 0xf02 <fControl+0x448>
            vState = vStateForWait;/* Состояние Розжиг. Ждем события перехода следующее состояние */
     c0e:	80 91 c8 01 	lds	r24, 0x01C8
     c12:	90 91 c9 01 	lds	r25, 0x01C9
     c16:	90 93 98 00 	sts	0x0098, r25
     c1a:	80 93 97 00 	sts	0x0097, r24
            krSetTimer(GetTaskID(fWait_Time_2Next), vStateNextTime);           /* */
     c1e:	60 91 c6 01 	lds	r22, 0x01C6
     c22:	70 91 c7 01 	lds	r23, 0x01C7
     c26:	83 e1       	ldi	r24, 0x13	; 19
     c28:	0e 94 45 0e 	call	0x1c8a	; 0x1c8a <krSetTimer>
     c2c:	6a c1       	rjmp	.+724    	; 0xf02 <fControl+0x448>
  v_Param.Fuel = 1;
}

void f_Go2IGN_UNLOAD(u08 N_Uld, eSTATE_t Wait2Next, eSTATE_t NextTime,u16 Time)
{
  v_N_Unload = N_Uld;                                     /* Кол-во оборотов шнека выгрузки */
     c2e:	81 e0       	ldi	r24, 0x01	; 1
     c30:	80 93 ca 01 	sts	0x01CA, r24
  vStateNext = NextTime;
     c34:	85 e0       	ldi	r24, 0x05	; 5
     c36:	90 e0       	ldi	r25, 0x00	; 0
     c38:	90 93 96 00 	sts	0x0096, r25
     c3c:	80 93 95 00 	sts	0x0095, r24
  vStateNextTime = Time;
     c40:	80 e3       	ldi	r24, 0x30	; 48
     c42:	95 e7       	ldi	r25, 0x75	; 117
     c44:	90 93 c7 01 	sts	0x01C7, r25
     c48:	80 93 c6 01 	sts	0x01C6, r24
  vState = IGN_UNLOAD;
     c4c:	82 e0       	ldi	r24, 0x02	; 2
     c4e:	90 e0       	ldi	r25, 0x00	; 0
     c50:	90 93 98 00 	sts	0x0098, r25
     c54:	80 93 97 00 	sts	0x0097, r24
  vStateForWait = Wait2Next;
     c58:	83 e0       	ldi	r24, 0x03	; 3
     c5a:	90 e0       	ldi	r25, 0x00	; 0
     c5c:	17 c0       	rjmp	.+46     	; 0xc8c <fControl+0x1d2>
  v_Param.Fuel = 1;
}

void f_Go2IGN_UNLOAD(u08 N_Uld, eSTATE_t Wait2Next, eSTATE_t NextTime,u16 Time)
{
  v_N_Unload = N_Uld;                                     /* Кол-во оборотов шнека выгрузки */
     c5e:	81 e0       	ldi	r24, 0x01	; 1
     c60:	80 93 ca 01 	sts	0x01CA, r24
  vStateNext = NextTime;
     c64:	86 e0       	ldi	r24, 0x06	; 6
     c66:	90 e0       	ldi	r25, 0x00	; 0
     c68:	90 93 96 00 	sts	0x0096, r25
     c6c:	80 93 95 00 	sts	0x0095, r24
  vStateNextTime = Time;
     c70:	80 ee       	ldi	r24, 0xE0	; 224
     c72:	9e e2       	ldi	r25, 0x2E	; 46
     c74:	90 93 c7 01 	sts	0x01C7, r25
     c78:	80 93 c6 01 	sts	0x01C6, r24
  vState = IGN_UNLOAD;
     c7c:	82 e0       	ldi	r24, 0x02	; 2
     c7e:	90 e0       	ldi	r25, 0x00	; 0
     c80:	90 93 98 00 	sts	0x0098, r25
     c84:	80 93 97 00 	sts	0x0097, r24
  vStateForWait = Wait2Next;
     c88:	87 e0       	ldi	r24, 0x07	; 7
     c8a:	90 e0       	ldi	r25, 0x00	; 0
     c8c:	90 93 c9 01 	sts	0x01C9, r25
     c90:	80 93 c8 01 	sts	0x01C8, r24
     c94:	36 c1       	rjmp	.+620    	; 0xf02 <fControl+0x448>

        break;
      }

    case IGN_ULD_12MIN: {
        f_Go2IGN_UNLOAD(1,IGNITION, BRN_UNLOAD, vSets.T_Ignition * FreqOS);
     c96:	20 91 f1 01 	lds	r18, 0x01F1
     c9a:	30 91 f2 01 	lds	r19, 0x01F2
     c9e:	44 e6       	ldi	r20, 0x64	; 100
     ca0:	42 9f       	mul	r20, r18
     ca2:	c0 01       	movw	r24, r0
     ca4:	43 9f       	mul	r20, r19
     ca6:	90 0d       	add	r25, r0
     ca8:	11 24       	eor	r1, r1
  v_Param.Fuel = 1;
}

void f_Go2IGN_UNLOAD(u08 N_Uld, eSTATE_t Wait2Next, eSTATE_t NextTime,u16 Time)
{
  v_N_Unload = N_Uld;                                     /* Кол-во оборотов шнека выгрузки */
     caa:	21 e0       	ldi	r18, 0x01	; 1
     cac:	20 93 ca 01 	sts	0x01CA, r18
  vStateNext = NextTime;
     cb0:	2a e0       	ldi	r18, 0x0A	; 10
     cb2:	30 e0       	ldi	r19, 0x00	; 0
     cb4:	30 93 96 00 	sts	0x0096, r19
     cb8:	20 93 95 00 	sts	0x0095, r18
     cbc:	db cf       	rjmp	.-74     	; 0xc74 <fControl+0x1ba>

        break;
      }

    case IGN_TEN: {
        pszState = (u08*)&szState_T;
     cbe:	89 e9       	ldi	r24, 0x99	; 153
     cc0:	90 e0       	ldi	r25, 0x00	; 0
     cc2:	90 93 a8 00 	sts	0x00A8, r25
     cc6:	80 93 a7 00 	sts	0x00A7, r24
        fOffAllRele();                                                   /* Отключаем все реле */
     cca:	0e 94 57 05 	call	0xaae	; 0xaae <fOffAllRele>
        mRK_On(K_TEN);
        mRK_On(K_FAN);
     cce:	80 91 e5 00 	lds	r24, 0x00E5
     cd2:	83 60       	ori	r24, 0x03	; 3
     cd4:	0b c0       	rjmp	.+22     	; 0xcec <fControl+0x232>
        TimerTaskID = GetTaskID(fWait_Time_2Next);
        break;
      }

    case IGNITION: {
        pszState = (u08*)&szState_I;
     cd6:	8f e9       	ldi	r24, 0x9F	; 159
     cd8:	90 e0       	ldi	r25, 0x00	; 0
     cda:	90 93 a8 00 	sts	0x00A8, r25
     cde:	80 93 a7 00 	sts	0x00A7, r24
        fOffAllRele();                                                   /* Отключаем все реле */
     ce2:	0e 94 57 05 	call	0xaae	; 0xaae <fOffAllRele>
        mRK_On(K_FAN);
     ce6:	80 91 e5 00 	lds	r24, 0x00E5
     cea:	82 60       	ori	r24, 0x02	; 2
     cec:	80 93 e5 00 	sts	0x00E5, r24
        TimerTaskID = GetTaskID(fWait_Time_2Next);
     cf0:	83 e1       	ldi	r24, 0x13	; 19
     cf2:	3a c0       	rjmp	.+116    	; 0xd68 <fControl+0x2ae>
    //
    //        break;
    //      }

    case BRN_UNLOAD: {
        pszState = (u08*)&szState_U;
     cf4:	8c e9       	ldi	r24, 0x9C	; 156
     cf6:	90 e0       	ldi	r25, 0x00	; 0
     cf8:	90 93 a8 00 	sts	0x00A8, r25
     cfc:	80 93 a7 00 	sts	0x00A7, r24
        fOffAllRele();                                                   /* Отключаем все реле */
     d00:	0e 94 57 05 	call	0xaae	; 0xaae <fOffAllRele>
        mRK_Off(K_BUNKER);
     d04:	80 91 e5 00 	lds	r24, 0x00E5
     d08:	8f 7d       	andi	r24, 0xDF	; 223
        mRK_On(K_FAN);
     d0a:	82 60       	ori	r24, 0x02	; 2
     d0c:	80 93 e5 00 	sts	0x00E5, r24

        if (pFlg->Grate == 1) {
     d10:	04 9b       	sbis	0x00, 4	; 0
     d12:	07 c0       	rjmp	.+14     	; 0xd22 <fControl+0x268>
          /* Нужно подвинуть топливо в горелке */
          pFlg->Grate = 0;
     d14:	04 98       	cbi	0x00, 4	; 0
          vState = BRN_GRATE;
     d16:	8b e0       	ldi	r24, 0x0B	; 11
     d18:	90 e0       	ldi	r25, 0x00	; 0
     d1a:	90 93 98 00 	sts	0x0098, r25
     d1e:	80 93 97 00 	sts	0x0097, r24
        }

        v_N_Unload = vRegParam.N_Unload;
     d22:	80 91 be 01 	lds	r24, 0x01BE
     d26:	80 93 ca 01 	sts	0x01CA, r24
     d2a:	0e 94 1d 02 	call	0x43a	; 0x43a <f_FSM_Unload.part.1>

        if (f_FSM_Unload(0)) {
     d2e:	88 23       	and	r24, r24
     d30:	09 f4       	brne	.+2      	; 0xd34 <fControl+0x27a>
     d32:	e7 c0       	rjmp	.+462    	; 0xf02 <fControl+0x448>
          if (vState == BRN_UNLOAD) {
     d34:	80 91 97 00 	lds	r24, 0x0097
     d38:	90 91 98 00 	lds	r25, 0x0098
     d3c:	0a 97       	sbiw	r24, 0x0a	; 10
     d3e:	b9 f4       	brne	.+46     	; 0xd6e <fControl+0x2b4>
            vState = BURNING;
     d40:	88 e0       	ldi	r24, 0x08	; 8
     d42:	90 e0       	ldi	r25, 0x00	; 0
     d44:	90 93 98 00 	sts	0x0098, r25
     d48:	80 93 97 00 	sts	0x0097, r24
            //{
            mSetTimerTask(fReUnload_On, (vSets.T_Pause) * FreqOS);
     d4c:	80 91 e5 01 	lds	r24, 0x01E5
     d50:	90 91 e6 01 	lds	r25, 0x01E6
     d54:	24 e6       	ldi	r18, 0x64	; 100
     d56:	28 9f       	mul	r18, r24
     d58:	b0 01       	movw	r22, r0
     d5a:	29 9f       	mul	r18, r25
     d5c:	70 0d       	add	r23, r0
     d5e:	11 24       	eor	r1, r1
     d60:	80 e1       	ldi	r24, 0x10	; 16
     d62:	0e 94 45 0e 	call	0x1c8a	; 0x1c8a <krSetTimer>
            TimerTaskID = GetTaskID(fReUnload_On);
     d66:	80 e1       	ldi	r24, 0x10	; 16
     d68:	80 93 9a 00 	sts	0x009A, r24
     d6c:	ca c0       	rjmp	.+404    	; 0xf02 <fControl+0x448>
            //}
          } else {
            mClrTimer(fReUnload_On);  /* Остановим таймер  */
     d6e:	80 e1       	ldi	r24, 0x10	; 16
     d70:	0e 94 98 0e 	call	0x1d30	; 0x1d30 <krClrTimer>
     d74:	c6 c0       	rjmp	.+396    	; 0xf02 <fControl+0x448>

        break;
      }

    case BURNING: {
        pszState = (u08*)&szState_B;
     d76:	86 e9       	ldi	r24, 0x96	; 150
     d78:	90 e0       	ldi	r25, 0x00	; 0
     d7a:	90 93 a8 00 	sts	0x00A8, r25
     d7e:	80 93 a7 00 	sts	0x00A7, r24
        fOffAllRele();                                                   /* Отключаем все реле */
     d82:	0e 94 57 05 	call	0xaae	; 0xaae <fOffAllRele>
        mLED_On(LED_BURNING);
     d86:	80 91 99 00 	lds	r24, 0x0099
     d8a:	88 60       	ori	r24, 0x08	; 8
     d8c:	80 93 99 00 	sts	0x0099, r24
        mRK_On(K_FAN);
     d90:	80 91 e5 00 	lds	r24, 0x00E5
     d94:	82 60       	ori	r24, 0x02	; 2
     d96:	80 93 e5 00 	sts	0x00E5, r24

        if (!krGetTimer(GetTaskID(fReUnload_On))) {
     d9a:	80 e1       	ldi	r24, 0x10	; 16
     d9c:	0e 94 84 0e 	call	0x1d08	; 0x1d08 <krGetTimer>
     da0:	89 2b       	or	r24, r25
     da2:	09 f0       	breq	.+2      	; 0xda6 <fControl+0x2ec>
     da4:	ae c0       	rjmp	.+348    	; 0xf02 <fControl+0x448>
  //  static volatile  u32 vUnloadTime;
  static u08 N_Unload_Old;
  static volatile  eFSM_Unload_t FSM_Unload;

  if (vFSM) {
    FSM_Unload = vFSM;
     da6:	81 e0       	ldi	r24, 0x01	; 1
     da8:	90 e0       	ldi	r25, 0x00	; 0
     daa:	90 93 8a 00 	sts	0x008A, r25
     dae:	80 93 89 00 	sts	0x0089, r24
        mLED_On(LED_BURNING);
        mRK_On(K_FAN);

        if (!krGetTimer(GetTaskID(fReUnload_On))) {
          f_FSM_Unload(UNLD_INIT);
          vState = BRN_UNLOAD;  /* Устанавливаем режим горения с загрузкой бункера */
     db2:	8a e0       	ldi	r24, 0x0A	; 10
     db4:	90 e0       	ldi	r25, 0x00	; 0
     db6:	90 93 98 00 	sts	0x0098, r25
     dba:	80 93 97 00 	sts	0x0097, r24
          vStateNext = BRN_UNLOAD;
     dbe:	90 93 96 00 	sts	0x0096, r25
     dc2:	80 93 95 00 	sts	0x0095, r24
     dc6:	9d c0       	rjmp	.+314    	; 0xf02 <fControl+0x448>

        break;
      }

    case BRN_GRATE: {
        pszState = (u08*)&szState_G;
     dc8:	83 e9       	ldi	r24, 0x93	; 147
     dca:	90 e0       	ldi	r25, 0x00	; 0
     dcc:	90 93 a8 00 	sts	0x00A8, r25
     dd0:	80 93 a7 00 	sts	0x00A7, r24
        fOffAllRele();                                                   /* Отключаем все реле */
     dd4:	0e 94 57 05 	call	0xaae	; 0xaae <fOffAllRele>
        mLED_On(LED_BURNING);
        mLED_On(LED_GRATE);
        mLED_On(LED_UNLOAD);
     dd8:	80 91 99 00 	lds	r24, 0x0099
     ddc:	88 63       	ori	r24, 0x38	; 56
     dde:	80 93 99 00 	sts	0x0099, r24
        mRK_On(K_FAN);
     de2:	80 91 e5 00 	lds	r24, 0x00E5
     de6:	82 60       	ori	r24, 0x02	; 2
     de8:	80 93 e5 00 	sts	0x00E5, r24

        if (f_FSM_Grate(0)) {
     dec:	80 e0       	ldi	r24, 0x00	; 0
     dee:	90 e0       	ldi	r25, 0x00	; 0
     df0:	0e 94 80 04 	call	0x900	; 0x900 <f_FSM_Grate>
     df4:	88 23       	and	r24, r24
     df6:	09 f4       	brne	.+2      	; 0xdfa <fControl+0x340>
     df8:	84 c0       	rjmp	.+264    	; 0xf02 <fControl+0x448>
          vState = BURNING;
     dfa:	88 e0       	ldi	r24, 0x08	; 8
     dfc:	90 e0       	ldi	r25, 0x00	; 0
     dfe:	90 93 98 00 	sts	0x0098, r25
     e02:	80 93 97 00 	sts	0x0097, r24
     e06:	7d c0       	rjmp	.+250    	; 0xf02 <fControl+0x448>

        break;
      }

    case AFTERBURN: {
        pszState = (u08*)&szState_D;
     e08:	80 e9       	ldi	r24, 0x90	; 144
     e0a:	90 e0       	ldi	r25, 0x00	; 0
     e0c:	90 93 a8 00 	sts	0x00A8, r25
     e10:	80 93 a7 00 	sts	0x00A7, r24
        fOffAllRele();                                                   /* Отключаем все реле */
     e14:	0e 94 57 05 	call	0xaae	; 0xaae <fOffAllRele>
        mRK_On(K_FAN);
     e18:	80 91 e5 00 	lds	r24, 0x00E5
     e1c:	82 60       	ori	r24, 0x02	; 2
     e1e:	80 93 e5 00 	sts	0x00E5, r24
        break;
     e22:	6f c0       	rjmp	.+222    	; 0xf02 <fControl+0x448>
      }

    case FAULT: {
        fOffAllRele();                                                   /* Отключаем все реле */
     e24:	0e 94 57 05 	call	0xaae	; 0xaae <fOffAllRele>
        mClrTimer(fWait_Time_2Next);             /* */
     e28:	83 e1       	ldi	r24, 0x13	; 19
     e2a:	0e 94 98 0e 	call	0x1d30	; 0x1d30 <krClrTimer>
     e2e:	18 c0       	rjmp	.+48     	; 0xe60 <fControl+0x3a6>
        fBuzSound(1);
        break;
      }

    case FAULT_TS2: {
        fOffAllRele();                                                   /* Отключаем все реле */
     e30:	0e 94 57 05 	call	0xaae	; 0xaae <fOffAllRele>
        mRK_On(K_FAN);
     e34:	80 91 e5 00 	lds	r24, 0x00E5
     e38:	82 60       	ori	r24, 0x02	; 2
     e3a:	80 93 e5 00 	sts	0x00E5, r24
        vStateNext = FAULT_TS2_2;
     e3e:	81 e1       	ldi	r24, 0x11	; 17
     e40:	90 e0       	ldi	r25, 0x00	; 0
     e42:	90 93 96 00 	sts	0x0096, r25
     e46:	80 93 95 00 	sts	0x0095, r24
        mSetTimerTask(fWait_Time_2Next, T_ULD_FAULT_TS2 _s);             /* */
     e4a:	68 ee       	ldi	r22, 0xE8	; 232
     e4c:	73 e0       	ldi	r23, 0x03	; 3
     e4e:	83 e1       	ldi	r24, 0x13	; 19
     e50:	0e 94 45 0e 	call	0x1c8a	; 0x1c8a <krSetTimer>
        vState = FAULT_TS2_1;
     e54:	80 e1       	ldi	r24, 0x10	; 16
     e56:	90 e0       	ldi	r25, 0x00	; 0
     e58:	90 93 98 00 	sts	0x0098, r25
     e5c:	80 93 97 00 	sts	0x0097, r24
        fBuzSound(1);
     e60:	81 e0       	ldi	r24, 0x01	; 1
     e62:	4d c0       	rjmp	.+154    	; 0xefe <fControl+0x444>
        break;
      }

    case FAULT_TS2_1: {
        fOffAllRele();                                                   /* Отключаем все реле */
     e64:	0e 94 57 05 	call	0xaae	; 0xaae <fOffAllRele>
        mRK_On(K_FAN);
        mRK_On(K_R_SCREW);
     e68:	80 91 e5 00 	lds	r24, 0x00E5
     e6c:	86 60       	ori	r24, 0x06	; 6
     e6e:	80 93 e5 00 	sts	0x00E5, r24
     e72:	f6 cf       	rjmp	.-20     	; 0xe60 <fControl+0x3a6>
        fBuzSound(1);
        break;
      }

    case FAULT_TS2_2: {
        fOffAllRele();                                                   /* Отключаем все реле */
     e74:	0e 94 57 05 	call	0xaae	; 0xaae <fOffAllRele>
        mRK_On(K_FAN);
     e78:	80 91 e5 00 	lds	r24, 0x00E5
     e7c:	82 60       	ori	r24, 0x02	; 2
     e7e:	80 93 e5 00 	sts	0x00E5, r24
        vStateNext = FAULT_TS2;
     e82:	8f e0       	ldi	r24, 0x0F	; 15
     e84:	90 e0       	ldi	r25, 0x00	; 0
     e86:	90 93 96 00 	sts	0x0096, r25
     e8a:	80 93 95 00 	sts	0x0095, r24
        mSetTimerTask(fWait_Time_2Next, T_WAIT_FAULT_TS2 _s);             /* */
     e8e:	68 e2       	ldi	r22, 0x28	; 40
     e90:	73 e2       	ldi	r23, 0x23	; 35
     e92:	83 e1       	ldi	r24, 0x13	; 19
     e94:	0e 94 45 0e 	call	0x1c8a	; 0x1c8a <krSetTimer>
        vState = FAULT_TS2_3;
     e98:	82 e1       	ldi	r24, 0x12	; 18
     e9a:	90 e0       	ldi	r25, 0x00	; 0
     e9c:	90 93 98 00 	sts	0x0098, r25
     ea0:	80 93 97 00 	sts	0x0097, r24
        v_cnt_FultTS2_Unload--;
     ea4:	80 91 bb 01 	lds	r24, 0x01BB
     ea8:	81 50       	subi	r24, 0x01	; 1
     eaa:	80 93 bb 01 	sts	0x01BB, r24

        if (v_cnt_FultTS2_Unload == 0) {
     eae:	81 11       	cpse	r24, r1
     eb0:	d7 cf       	rjmp	.-82     	; 0xe60 <fControl+0x3a6>
          vState = FAULT;
     eb2:	8d e0       	ldi	r24, 0x0D	; 13
     eb4:	90 e0       	ldi	r25, 0x00	; 0
     eb6:	d0 cf       	rjmp	.-96     	; 0xe58 <fControl+0x39e>
        fBuzSound(1);
        break;
      }

    case FAULT_TS2_3: {
        fOffAllRele();                                                   /* Отключаем все реле */
     eb8:	0e 94 57 05 	call	0xaae	; 0xaae <fOffAllRele>
        mRK_On(K_FAN);
     ebc:	80 91 e5 00 	lds	r24, 0x00E5
     ec0:	82 60       	ori	r24, 0x02	; 2
     ec2:	80 93 e5 00 	sts	0x00E5, r24

        if (v_Param.TS2 < (273 + TEMP_HOT - 1)) { /* Контроль аварийной ситуации перегрев корпуса */
     ec6:	80 91 da 00 	lds	r24, 0x00DA
     eca:	90 91 db 00 	lds	r25, 0x00DB
     ece:	8a 36       	cpi	r24, 0x6A	; 106
     ed0:	91 40       	sbci	r25, 0x01	; 1
     ed2:	30 f6       	brcc	.-116    	; 0xe60 <fControl+0x3a6>
          vState = FAULT;
     ed4:	8d e0       	ldi	r24, 0x0D	; 13
     ed6:	90 e0       	ldi	r25, 0x00	; 0
     ed8:	90 93 98 00 	sts	0x0098, r25
     edc:	80 93 97 00 	sts	0x0097, r24
          pszError = (u08*)&szFaultTS2;
     ee0:	84 e8       	ldi	r24, 0x84	; 132
     ee2:	90 e0       	ldi	r25, 0x00	; 0
     ee4:	90 93 a5 00 	sts	0x00A5, r25
     ee8:	80 93 a4 00 	sts	0x00A4, r24
     eec:	b9 cf       	rjmp	.-142    	; 0xe60 <fControl+0x3a6>
        fBuzSound(0b0011);
        break;
      }

    case FAULT_LOAD: {
        fOffAllRele();                                                   /* Отключаем все реле */
     eee:	0e 94 57 05 	call	0xaae	; 0xaae <fOffAllRele>
        mRK_On(K_FAN);
     ef2:	80 91 e5 00 	lds	r24, 0x00E5
     ef6:	82 60       	ori	r24, 0x02	; 2
     ef8:	80 93 e5 00 	sts	0x00E5, r24
        fBuzSound(0b0011);
     efc:	83 e0       	ldi	r24, 0x03	; 3
     efe:	0e 94 3f 03 	call	0x67e	; 0x67e <fBuzSound>

    default:
      break;
  }

  switch (vState) {
     f02:	80 91 97 00 	lds	r24, 0x0097
     f06:	90 91 98 00 	lds	r25, 0x0098
     f0a:	0f 97       	sbiw	r24, 0x0f	; 15
     f0c:	04 97       	sbiw	r24, 0x04	; 4
     f0e:	b0 f0       	brcs	.+44     	; 0xf3c <fControl+0x482>
    case FAULT_TS2_3: {
        break;
      }

    default: {
        if (v_Param.TS2 > (273 + TEMP_HOT)) { /* Контроль аварийной ситуации перегрев корпуса */
     f10:	80 91 da 00 	lds	r24, 0x00DA
     f14:	90 91 db 00 	lds	r25, 0x00DB
     f18:	8c 36       	cpi	r24, 0x6C	; 108
     f1a:	91 40       	sbci	r25, 0x01	; 1
     f1c:	78 f0       	brcs	.+30     	; 0xf3c <fControl+0x482>
          v_cnt_FultTS2_Unload = N_ULD_FAULT_TS2;
     f1e:	83 e0       	ldi	r24, 0x03	; 3
     f20:	80 93 bb 01 	sts	0x01BB, r24
          vState = FAULT_TS2;
     f24:	8f e0       	ldi	r24, 0x0F	; 15
     f26:	90 e0       	ldi	r25, 0x00	; 0
     f28:	90 93 98 00 	sts	0x0098, r25
     f2c:	80 93 97 00 	sts	0x0097, r24
          pszError = (u08*)&szFaultTS2;
     f30:	84 e8       	ldi	r24, 0x84	; 132
     f32:	90 e0       	ldi	r25, 0x00	; 0
     f34:	90 93 a5 00 	sts	0x00A5, r25
     f38:	80 93 a4 00 	sts	0x00A4, r24

        break;
      }
  }

  f_FSM_Alarm(0);
     f3c:	80 e0       	ldi	r24, 0x00	; 0
     f3e:	0e 94 e4 04 	call	0x9c8	; 0x9c8 <f_FSM_Alarm>
  fBunker();
     f42:	0e 94 13 05 	call	0xa26	; 0xa26 <fBunker>
  f_Output();                                          /* Вывод управляющих сигналов на реле */
} /* fControl() */
     f46:	df 91       	pop	r29
     f48:	cf 91       	pop	r28
      }
  }

  f_FSM_Alarm(0);
  fBunker();
  f_Output();                                          /* Вывод управляющих сигналов на реле */
     f4a:	0c 94 52 04 	jmp	0x8a4	; 0x8a4 <f_Output>

00000f4e <fSQGet>:
void fSQGet(void)
{
  volatile Flg_t *pFlg = (Flg_t*)(&gFlagsL); /* Инициализация указателя на структуру флагов */
  u08 tmpSQ;
  //mSendTask(fSQGet);
  mSetTimerTask(fSQGet, 10 _ms);
     f4e:	61 e0       	ldi	r22, 0x01	; 1
     f50:	70 e0       	ldi	r23, 0x00	; 0
     f52:	85 e1       	ldi	r24, 0x15	; 21
     f54:	0e 94 45 0e 	call	0x1c8a	; 0x1c8a <krSetTimer>
  tmpSQ = vSQ_State;
     f58:	80 91 9b 00 	lds	r24, 0x009B
  tmpSQ <<= 1;
     f5c:	88 0f       	add	r24, r24
  tmpSQ &= ~0x11;
     f5e:	8e 7e       	andi	r24, 0xEE	; 238
#ifdef SQ1

  if (mPinIsAct(SQ1)) {
     f60:	9b 99       	sbic	0x13, 3	; 19
     f62:	03 c0       	rjmp	.+6      	; 0xf6a <fSQGet+0x1c>
    tmpSQ |= 0x01;
     f64:	81 60       	ori	r24, 0x01	; 1
    pFlg->Screw = 1;
     f66:	03 9a       	sbi	0x00, 3	; 0
     f68:	01 c0       	rjmp	.+2      	; 0xf6c <fSQGet+0x1e>
  } else {
    pFlg->Screw = 0;
     f6a:	03 98       	cbi	0x00, 3	; 0
  }

#endif // SQ1
  vSQ_State = tmpSQ;
     f6c:	80 93 9b 00 	sts	0x009B, r24

  switch (tmpSQ & 0b11) {
     f70:	83 70       	andi	r24, 0x03	; 3
     f72:	81 30       	cpi	r24, 0x01	; 1
     f74:	19 f0       	breq	.+6      	; 0xf7c <fSQGet+0x2e>
     f76:	82 30       	cpi	r24, 0x02	; 2
     f78:	21 f0       	breq	.+8      	; 0xf82 <fSQGet+0x34>
     f7a:	08 95       	ret
    case 0b01: {                         /* Замыкание конечного контакта SQ1 выталкивателя */
        /* */
        krSendTask(SQ1_On_TaskID);
     f7c:	80 91 b7 00 	lds	r24, 0x00B7
     f80:	02 c0       	rjmp	.+4      	; 0xf86 <fSQGet+0x38>
        break;
      }

    case 0b10: {                        /* Размыкание конечного контакта SQ1 выталкивателя */
        /* */
        krSendTask(SQ1_Off_TaskID);
     f82:	80 91 aa 00 	lds	r24, 0x00AA
     f86:	0c 94 2a 0e 	jmp	0x1c54	; 0x1c54 <krSendTask>

00000f8a <fSQInit>:
}

void fSQInit(void)
{
#ifdef SQ1
  mPinIn(SQ1);
     f8a:	a3 98       	cbi	0x14, 3	; 20
#endif // SQ1
  SQ1_On_TaskID = GetTaskID(fCntScrew);
     f8c:	84 e1       	ldi	r24, 0x14	; 20
     f8e:	80 93 b7 00 	sts	0x00B7, r24
  SQ1_Off_TaskID = GetTaskID(fIdle);
     f92:	10 92 aa 00 	sts	0x00AA, r1
  fSQGet();
     f96:	0c 94 a7 07 	jmp	0xf4e	; 0xf4e <fSQGet>

00000f9a <fADCInit>:
//  reti();
//}

void fADCInit(void)
{
  DDRC   &= ~0b00000111;   // Порт A на ввод
     f9a:	84 b3       	in	r24, 0x14	; 20
     f9c:	88 7f       	andi	r24, 0xF8	; 248
     f9e:	84 bb       	out	0x14, r24	; 20
  PORTC  &= ~0b00000111;  // Подтягивающие резисторы отключить
     fa0:	85 b3       	in	r24, 0x15	; 21
     fa2:	88 7f       	andi	r24, 0xF8	; 248
     fa4:	85 bb       	out	0x15, r24	; 21
  ADMUX   = 0
     fa6:	80 e2       	ldi	r24, 0x20	; 32
     fa8:	87 b9       	out	0x07, r24	; 7
            | (Aref_AREF << REFS0)  /* Опорное напряжение AVcc */
            | (1 << ADLAR)          /* Выравнивание по левому краю */
            | (ADC0);               /* Стартуем с ADC0 */
#ifdef ADATE
  SFIOR  &= ~(1 << ADTS2 | 1 << ADTS1 | 1 << ADTS0);  /* Free Running mode */
     faa:	80 b7       	in	r24, 0x30	; 48
     fac:	8f 71       	andi	r24, 0x1F	; 31
     fae:	80 bf       	out	0x30, r24	; 48
  SFIOR  |= (1 << ADTS2 | 0 << ADTS1 | 0 << ADTS0);   /* Timer/Counter0 Overflow */
     fb0:	80 b7       	in	r24, 0x30	; 48
     fb2:	80 68       	ori	r24, 0x80	; 128
     fb4:	80 bf       	out	0x30, r24	; 48
  //  SFIOR |=  (0 << ADTS2 | 1 << ADTS1 | 1 << ADTS0);  /* Timer/Counter0 Compare Match */
  ADCSRA  = (1 << ADEN) | ADCFR << ADATE | ADCIE << ADIE | (log2(DivADC) << ADPS0);
     fb6:	87 e8       	ldi	r24, 0x87	; 135
     fb8:	86 b9       	out	0x06, r24	; 6
#else
  ADCSRA = (1 << ADEN) | ADCFR << ADFR | ADCIE << ADIE | (log2(DivADC) << ADPS0);
#endif // ADATE
  TIFR   |= (1 << TOV0);
     fba:	88 b7       	in	r24, 0x38	; 56
     fbc:	81 60       	ori	r24, 0x01	; 1
     fbe:	88 bf       	out	0x38, r24	; 56
  ADCSRA |= (1 << ADIF); //Clean flag
     fc0:	34 9a       	sbi	0x06, 4	; 6
  ADCSRA |= (1 << ADSC); //ADC Start Conversion
     fc2:	36 9a       	sbi	0x06, 6	; 6
     fc4:	08 95       	ret

00000fc6 <CalcMid>:
}

#if ADC_BUF_SIZE

uint16_t CalcMid(buf_t * p_buf, uint16_t data)
{
     fc6:	cf 93       	push	r28
     fc8:	df 93       	push	r29
     fca:	fc 01       	movw	r30, r24
  p_buf->Summa -= p_buf->buf[p_buf->wr_indx];
     fcc:	20 81       	ld	r18, Z
     fce:	81 81       	ldd	r24, Z+1	; 0x01
     fd0:	92 81       	ldd	r25, Z+2	; 0x02
     fd2:	a3 81       	ldd	r26, Z+3	; 0x03
     fd4:	b4 81       	ldd	r27, Z+4	; 0x04
     fd6:	86 0f       	add	r24, r22
     fd8:	97 1f       	adc	r25, r23
     fda:	a1 1d       	adc	r26, r1
     fdc:	b1 1d       	adc	r27, r1
     fde:	ef 01       	movw	r28, r30
     fe0:	c2 0f       	add	r28, r18
     fe2:	d1 1d       	adc	r29, r1
     fe4:	c2 0f       	add	r28, r18
     fe6:	d1 1d       	adc	r29, r1
     fe8:	4d 81       	ldd	r20, Y+5	; 0x05
     fea:	5e 81       	ldd	r21, Y+6	; 0x06
  p_buf->Summa += data;
     fec:	84 1b       	sub	r24, r20
     fee:	95 0b       	sbc	r25, r21
     ff0:	a1 09       	sbc	r26, r1
     ff2:	b1 09       	sbc	r27, r1
     ff4:	81 83       	std	Z+1, r24	; 0x01
     ff6:	92 83       	std	Z+2, r25	; 0x02
     ff8:	a3 83       	std	Z+3, r26	; 0x03
     ffa:	b4 83       	std	Z+4, r27	; 0x04
  p_buf->buf[p_buf->wr_indx] = data;
     ffc:	7e 83       	std	Y+6, r23	; 0x06
     ffe:	6d 83       	std	Y+5, r22	; 0x05
  p_buf->wr_indx++;
    1000:	2f 5f       	subi	r18, 0xFF	; 255

  if (p_buf->wr_indx >= ADC_BUF_SIZE) {
    1002:	28 30       	cpi	r18, 0x08	; 8
    1004:	10 f4       	brcc	.+4      	; 0x100a <CalcMid+0x44>
uint16_t CalcMid(buf_t * p_buf, uint16_t data)
{
  p_buf->Summa -= p_buf->buf[p_buf->wr_indx];
  p_buf->Summa += data;
  p_buf->buf[p_buf->wr_indx] = data;
  p_buf->wr_indx++;
    1006:	20 83       	st	Z, r18
    1008:	01 c0       	rjmp	.+2      	; 0x100c <CalcMid+0x46>

  if (p_buf->wr_indx >= ADC_BUF_SIZE) {
    p_buf->wr_indx = 0;
    100a:	10 82       	st	Z, r1
  }

  return p_buf->Summa / ADC_BUF_SIZE;
    100c:	23 e0       	ldi	r18, 0x03	; 3
    100e:	b6 95       	lsr	r27
    1010:	a7 95       	ror	r26
    1012:	97 95       	ror	r25
    1014:	87 95       	ror	r24
    1016:	2a 95       	dec	r18
    1018:	d1 f7       	brne	.-12     	; 0x100e <CalcMid+0x48>
}
    101a:	df 91       	pop	r29
    101c:	cf 91       	pop	r28
    101e:	08 95       	ret

00001020 <fADC_Exe>:
  ADCSRA |= (1 << ADSC); //ADC Start Conversion
  return;
}

void fADC_Exe(void)
{
    1020:	1f 93       	push	r17
    1022:	cf 93       	push	r28
    1024:	df 93       	push	r29
  static u08 CurCanal = 0;
  u08 tmpCanal = 0;
  u08 tmpFreeRun = 0;

  if (ADCSRA & (1 << ADIF)) {
    1026:	34 9b       	sbis	0x06, 4	; 6
    1028:	37 c0       	rjmp	.+110    	; 0x1098 <fADC_Exe+0x78>
    ADCSRA  |= (1 << ADIF);    // Acknowledge the interrupt flag
    102a:	34 9a       	sbi	0x06, 4	; 6
    TIFR    |= (1 << TOV0);
    102c:	88 b7       	in	r24, 0x38	; 56
    102e:	81 60       	ori	r24, 0x01	; 1
    1030:	88 bf       	out	0x38, r24	; 56
#endif // ADATE
#else
    tmpFreeRun = 0;
#endif // ADCFR
    //tmpFreeRun = 0;
    tmpCanal = (CurCanal - tmpFreeRun);
    1032:	10 91 8c 00 	lds	r17, 0x008C

    if (tmpCanal >= ADC_MAX_CANAL) {
    1036:	13 30       	cpi	r17, 0x03	; 3
    1038:	10 f0       	brcs	.+4      	; 0x103e <fADC_Exe+0x1e>
      tmpCanal = 0;
    103a:	c0 e0       	ldi	r28, 0x00	; 0
    103c:	01 c0       	rjmp	.+2      	; 0x1040 <fADC_Exe+0x20>
    103e:	c1 2f       	mov	r28, r17
    }

#if ADC_BUF_SIZE
    u16 mid;
    mid = CalcMid(v_ADC_Bufs[tmpCanal], ADC);
    1040:	64 b1       	in	r22, 0x04	; 4
    1042:	75 b1       	in	r23, 0x05	; 5
    1044:	d0 e0       	ldi	r29, 0x00	; 0
    1046:	cc 0f       	add	r28, r28
    1048:	dd 1f       	adc	r29, r29
    104a:	fe 01       	movw	r30, r28
    104c:	eb 55       	subi	r30, 0x5B	; 91
    104e:	ff 4f       	sbci	r31, 0xFF	; 255
    1050:	85 91       	lpm	r24, Z+
    1052:	95 91       	lpm	r25, Z+
    1054:	0e 94 e3 07 	call	0xfc6	; 0xfc6 <CalcMid>
    v_ADC[v_ADC_List[tmpCanal].nCanal] = mid;
    1058:	fe 01       	movw	r30, r28
    105a:	e5 55       	subi	r30, 0x55	; 85
    105c:	ff 4f       	sbci	r31, 0xFF	; 255
    105e:	e4 91       	lpm	r30, Z
    1060:	f0 e0       	ldi	r31, 0x00	; 0
    1062:	ee 0f       	add	r30, r30
    1064:	ff 1f       	adc	r31, r31
    1066:	e3 57       	subi	r30, 0x73	; 115
    1068:	ff 4f       	sbci	r31, 0xFF	; 255
    106a:	91 83       	std	Z+1, r25	; 0x01
    106c:	80 83       	st	Z, r24
#else
    v_ADC[v_ADC_List[tmpCanal].nCanal] = ADC;
#endif // BUFF_SIZE
    CurCanal++;
    106e:	1f 5f       	subi	r17, 0xFF	; 255

    if (CurCanal >= ADC_MAX_CANAL) {
    1070:	13 30       	cpi	r17, 0x03	; 3
    1072:	18 f4       	brcc	.+6      	; 0x107a <fADC_Exe+0x5a>
    mid = CalcMid(v_ADC_Bufs[tmpCanal], ADC);
    v_ADC[v_ADC_List[tmpCanal].nCanal] = mid;
#else
    v_ADC[v_ADC_List[tmpCanal].nCanal] = ADC;
#endif // BUFF_SIZE
    CurCanal++;
    1074:	10 93 8c 00 	sts	0x008C, r17
    1078:	02 c0       	rjmp	.+4      	; 0x107e <fADC_Exe+0x5e>

    if (CurCanal >= ADC_MAX_CANAL) {
      CurCanal = 0;
    107a:	10 92 8c 00 	sts	0x008C, r1
    }

    ADMUX = (ADMUX & ~0b11111) | v_ADC_List[CurCanal].Mux;
    107e:	87 b1       	in	r24, 0x07	; 7
    1080:	80 7e       	andi	r24, 0xE0	; 224
    1082:	e0 91 8c 00 	lds	r30, 0x008C
    1086:	f0 e0       	ldi	r31, 0x00	; 0
    1088:	ee 0f       	add	r30, r30
    108a:	ff 1f       	adc	r31, r31
    108c:	e4 55       	subi	r30, 0x54	; 84
    108e:	ff 4f       	sbci	r31, 0xFF	; 255
    1090:	94 91       	lpm	r25, Z
    1092:	89 2b       	or	r24, r25
    1094:	87 b9       	out	0x07, r24	; 7
        ADCSRA |= (1 << ADSC);      //ADC Start Conversion
    1096:	36 9a       	sbi	0x06, 6	; 6
  }
}
    1098:	df 91       	pop	r29
    109a:	cf 91       	pop	r28
    109c:	1f 91       	pop	r17
    109e:	08 95       	ret

000010a0 <fKBD_Init>:



void fKBD_Init(void)
{
  v_KBD.Last = 0;
    10a0:	ef e9       	ldi	r30, 0x9F	; 159
    10a2:	f1 e0       	ldi	r31, 0x01	; 1
    10a4:	10 82       	st	Z, r1
  v_KBD.AutoRep = KEY_TIME_REPEAT;
    10a6:	80 e5       	ldi	r24, 0x50	; 80
    10a8:	82 83       	std	Z+2, r24	; 0x02
    10aa:	08 95       	ret

000010ac <fKBD_Scan>:
  //  fOut_vPort(3, 0xff, IDDDR);                                        /* Порт кнопок на вывод */
  //static
#define volatile
#undef volatile
  asm volatile("":::"memory");
  mPinIn(KEY_01);
    10ac:	b8 98       	cbi	0x17, 0	; 23
  mPinIn(KEY_02);
    10ae:	ba 98       	cbi	0x17, 2	; 23
  mPinIn(KEY_03);
    10b0:	bc 98       	cbi	0x17, 4	; 23
  mPinSet(KEY_01);
    10b2:	c0 9a       	sbi	0x18, 0	; 24
  mPinSet(KEY_02);
    10b4:	c2 9a       	sbi	0x18, 2	; 24
  mPinSet(KEY_03);
    10b6:	c4 9a       	sbi	0x18, 4	; 24
  mDelay_us(4);
    10b8:	8a e0       	ldi	r24, 0x0A	; 10
    10ba:	8a 95       	dec	r24
    10bc:	f1 f7       	brne	.-4      	; 0x10ba <fKBD_Scan+0xe>
    10be:	00 c0       	rjmp	.+0      	; 0x10c0 <fKBD_Scan+0x14>
#define volatile
#undef volatile
  asm volatile("":::"memory");
  tmp_k1 = mPinIs(KEY_01);
    10c0:	86 b3       	in	r24, 0x16	; 22
    10c2:	28 2f       	mov	r18, r24
    10c4:	21 70       	andi	r18, 0x01	; 1
  tmp_k2 = mPinIs(KEY_02);
    10c6:	86 b3       	in	r24, 0x16	; 22
  tmp_k3 = mPinIs(KEY_03);
    10c8:	96 b3       	in	r25, 0x16	; 22
  mDelay_us(4);
#define volatile
#undef volatile
  asm volatile("":::"memory");
  tmp_k1 = mPinIs(KEY_01);
  tmp_k2 = mPinIs(KEY_02);
    10ca:	84 70       	andi	r24, 0x04	; 4
  tmp_k3 = mPinIs(KEY_03);
  tmp_v = tmp_k1 >> 0; /* Bit 0 to Bit 0 */
  tmp_v |= tmp_k2 >> 1; /* Bit 2 to Bit 1 */
    10cc:	86 95       	lsr	r24
#define volatile
#undef volatile
  asm volatile("":::"memory");
  tmp_k1 = mPinIs(KEY_01);
  tmp_k2 = mPinIs(KEY_02);
  tmp_k3 = mPinIs(KEY_03);
    10ce:	90 71       	andi	r25, 0x10	; 16
  tmp_v = tmp_k1 >> 0; /* Bit 0 to Bit 0 */
  tmp_v |= tmp_k2 >> 1; /* Bit 2 to Bit 1 */
  tmp_v |= tmp_k3 >> 2; /* Bit 4 to Bit 2 */
    10d0:	96 95       	lsr	r25
    10d2:	96 95       	lsr	r25
    10d4:	89 2b       	or	r24, r25
    10d6:	82 2b       	or	r24, r18
  tmp_v ^= 0b111;
  mPinClr(KEY_01);
    10d8:	c0 98       	cbi	0x18, 0	; 24
  mPinClr(KEY_02);
    10da:	c2 98       	cbi	0x18, 2	; 24
  mPinClr(KEY_03);
    10dc:	c4 98       	cbi	0x18, 4	; 24
  mPinOut(KEY_01);
    10de:	b8 9a       	sbi	0x17, 0	; 23
  mPinOut(KEY_02);
    10e0:	ba 9a       	sbi	0x17, 2	; 23
  mPinOut(KEY_03);
    10e2:	bc 9a       	sbi	0x17, 4	; 23
  return tmp_v;
}
    10e4:	97 e0       	ldi	r25, 0x07	; 7
    10e6:	89 27       	eor	r24, r25
    10e8:	08 95       	ret

000010ea <fKBD_Exe>:

void fKBD_Exe(void)
{
  u08 tmpKey;

  if (v_KBD.wt == 0) {
    10ea:	80 91 a3 01 	lds	r24, 0x01A3
    10ee:	88 23       	and	r24, r24
    10f0:	09 f4       	brne	.+2      	; 0x10f4 <fKBD_Exe+0xa>
    10f2:	3f c0       	rjmp	.+126    	; 0x1172 <fKBD_Exe+0x88>
    return;
  }

  v_KBD.wt = 0;
    10f4:	10 92 a3 01 	sts	0x01A3, r1
  tmpKey = fKBD_Scan();
    10f8:	0e 94 56 08 	call	0x10ac	; 0x10ac <fKBD_Scan>

  if (v_KBD.Last == tmpKey) {
    10fc:	90 91 9f 01 	lds	r25, 0x019F
    1100:	20 91 a0 01 	lds	r18, 0x01A0
    1104:	98 13       	cpse	r25, r24
    1106:	1c c0       	rjmp	.+56     	; 0x1140 <fKBD_Exe+0x56>
    v_KBD.Tick++;
    1108:	2f 5f       	subi	r18, 0xFF	; 255
    110a:	20 93 a0 01 	sts	0x01A0, r18

    if (v_KBD.Tick == KEY_TIME_SHORT) {
    110e:	23 30       	cpi	r18, 0x03	; 3
    1110:	81 f0       	breq	.+32     	; 0x1132 <fKBD_Exe+0x48>
      v_KBD.act = v_KBD.Last | 0x40;
      return;
    }

    if (v_KBD.Tick > KEY_TIME_REPEAT) {                                    /* Клавиша нажата */
    1112:	21 35       	cpi	r18, 0x51	; 81
    1114:	80 f0       	brcs	.+32     	; 0x1136 <fKBD_Exe+0x4c>
      v_KBD.AutoRep += 2;
    1116:	80 91 a1 01 	lds	r24, 0x01A1
    111a:	8e 5f       	subi	r24, 0xFE	; 254

      if (v_KBD.AutoRep > KEY_TIME_AREPEAT2) {       /* Контроль ограничения для автоповтора */
    111c:	89 34       	cpi	r24, 0x49	; 73
    111e:	08 f0       	brcs	.+2      	; 0x1122 <fKBD_Exe+0x38>
        v_KBD.AutoRep = KEY_TIME_AREPEAT2;
    1120:	88 e4       	ldi	r24, 0x48	; 72
    1122:	80 93 a1 01 	sts	0x01A1, r24
      }

      v_KBD.Tick = v_KBD.AutoRep;
    1126:	80 91 a1 01 	lds	r24, 0x01A1
    112a:	80 93 a0 01 	sts	0x01A0, r24
      //v_KBD.act = v_KBD.Last | 0x40;

      if (tmpKey != 0) {
    112e:	99 23       	and	r25, r25
    1130:	21 f0       	breq	.+8      	; 0x113a <fKBD_Exe+0x50>
        v_KBD.act = v_KBD.Last | 0x40;
    1132:	90 64       	ori	r25, 0x40	; 64
    1134:	0b c0       	rjmp	.+22     	; 0x114c <fKBD_Exe+0x62>
      }

      return;
    }

    if (tmpKey == 0) {
    1136:	91 11       	cpse	r25, r1
    1138:	1c c0       	rjmp	.+56     	; 0x1172 <fKBD_Exe+0x88>
      v_KBD.Tick = 0;
    113a:	10 92 a0 01 	sts	0x01A0, r1
    113e:	08 95       	ret
    }
  }

  if (v_KBD.Last != tmpKey) {
    if ((v_KBD.Tick > KEY_TIME_SHORT) && (v_KBD.Tick < KEY_TIME_AREPEAT1)) {
    1140:	3c ef       	ldi	r19, 0xFC	; 252
    1142:	32 0f       	add	r19, r18
    1144:	34 32       	cpi	r19, 0x24	; 36
    1146:	28 f4       	brcc	.+10     	; 0x1152 <fKBD_Exe+0x68>
      v_KBD.Tick = 0;
    1148:	10 92 a0 01 	sts	0x01A0, r1

    if ((v_KBD.Tick > KEY_TIME_AREPEAT1)) {
      v_KBD.Tick = 0;
      //v_KBD.Last = tmpKey;
      v_KBD.Last |= 0x80;
      v_KBD.act = v_KBD.Last;
    114c:	90 93 a2 01 	sts	0x01A2, r25
      return;
    1150:	08 95       	ret
      //v_KBD.Last = tmpKey;
      v_KBD.act = v_KBD.Last;
      return;
    }

    if ((v_KBD.Tick > KEY_TIME_AREPEAT1)) {
    1152:	29 32       	cpi	r18, 0x29	; 41
    1154:	30 f0       	brcs	.+12     	; 0x1162 <fKBD_Exe+0x78>
      v_KBD.Tick = 0;
    1156:	10 92 a0 01 	sts	0x01A0, r1
      //v_KBD.Last = tmpKey;
      v_KBD.Last |= 0x80;
    115a:	90 68       	ori	r25, 0x80	; 128
    115c:	90 93 9f 01 	sts	0x019F, r25
    1160:	f5 cf       	rjmp	.-22     	; 0x114c <fKBD_Exe+0x62>
      v_KBD.act = v_KBD.Last;
      return;
    }

    v_KBD.AutoRep = KEY_TIME_AREPEAT1;
    1162:	98 e2       	ldi	r25, 0x28	; 40
    1164:	90 93 a1 01 	sts	0x01A1, r25
    v_KBD.Tick = 0;
    1168:	10 92 a0 01 	sts	0x01A0, r1
    v_KBD.Last = tmpKey;
    116c:	80 93 9f 01 	sts	0x019F, r24
    return;
    1170:	08 95       	ret
    1172:	08 95       	ret

00001174 <fKBD_GetKey>:




u08 fKBD_GetKey(void)
{
    1174:	cf 93       	push	r28
  eKBD_MSG tmpMSG;

  if (v_KBD.act) {
    1176:	80 91 a2 01 	lds	r24, 0x01A2
    117a:	88 23       	and	r24, r24
    117c:	01 f1       	breq	.+64     	; 0x11be <fKBD_GetKey+0x4a>
    switch (v_KBD.act & 0b00111111) {
    117e:	98 2f       	mov	r25, r24
    1180:	9f 73       	andi	r25, 0x3F	; 63
    1182:	92 30       	cpi	r25, 0x02	; 2
    1184:	49 f0       	breq	.+18     	; 0x1198 <fKBD_GetKey+0x24>
    1186:	94 30       	cpi	r25, 0x04	; 4
    1188:	19 f0       	breq	.+6      	; 0x1190 <fKBD_GetKey+0x1c>
    118a:	91 30       	cpi	r25, 0x01	; 1
    118c:	61 f4       	brne	.+24     	; 0x11a6 <fKBD_GetKey+0x32>
    118e:	07 c0       	rjmp	.+14     	; 0x119e <fKBD_GetKey+0x2a>
      case 0b0100: {
          //case 0b0010: {
          if (v_KBD.act & 0x40) {
            tmpMSG = KBD_UP;                                             /* Нажимаем клавишу */
          } else {
            tmpMSG = KBD_NO;                                            /* Отпускаем клавишу */
    1190:	86 fb       	bst	r24, 6
    1192:	cc 27       	eor	r28, r28
    1194:	c0 f9       	bld	r28, 0
    1196:	0c c0       	rjmp	.+24     	; 0x11b0 <fKBD_GetKey+0x3c>
          break;
        }

      case 0b0010: {
          //case 0b0100: {
          if (v_KBD.act & 0x40) {
    1198:	86 fd       	sbrc	r24, 6
    119a:	07 c0       	rjmp	.+14     	; 0x11aa <fKBD_GetKey+0x36>
    119c:	04 c0       	rjmp	.+8      	; 0x11a6 <fKBD_GetKey+0x32>

          break;
        }

      case 0b0001: {
          if (v_KBD.act & (0x40)) {
    119e:	86 fd       	sbrc	r24, 6
    11a0:	06 c0       	rjmp	.+12     	; 0x11ae <fKBD_GetKey+0x3a>
            tmpMSG = KBD_SWDN ;                                           /* Нажимаем клавишу */
          } else {
            tmpMSG = KBD_SWUP;                                       /* Отпускаем клавиши */
    11a2:	c3 e0       	ldi	r28, 0x03	; 3
    11a4:	05 c0       	rjmp	.+10     	; 0x11b0 <fKBD_GetKey+0x3c>

          break;
        }

      default: {
          tmpMSG = KBD_NO;
    11a6:	c0 e0       	ldi	r28, 0x00	; 0
    11a8:	03 c0       	rjmp	.+6      	; 0x11b0 <fKBD_GetKey+0x3c>
        }

      case 0b0010: {
          //case 0b0100: {
          if (v_KBD.act & 0x40) {
            tmpMSG = KBD_DN;                                             /* Нажимаем клавишу */
    11aa:	c2 e0       	ldi	r28, 0x02	; 2
    11ac:	01 c0       	rjmp	.+2      	; 0x11b0 <fKBD_GetKey+0x3c>
          break;
        }

      case 0b0001: {
          if (v_KBD.act & (0x40)) {
            tmpMSG = KBD_SWDN ;                                           /* Нажимаем клавишу */
    11ae:	c4 e0       	ldi	r28, 0x04	; 4
          tmpMSG = KBD_NO;
        }
        break;
    }

    v_KBD.act = 0;
    11b0:	10 92 a2 01 	sts	0x01A2, r1
    fBuzOnTime(20 _ms);
    11b4:	82 e0       	ldi	r24, 0x02	; 2
    11b6:	90 e0       	ldi	r25, 0x00	; 0
    11b8:	0e 94 92 0c 	call	0x1924	; 0x1924 <fBuzOnTime>
    return tmpMSG;
    11bc:	8c 2f       	mov	r24, r28
  } else {
    return KBD_NO;
  }
}
    11be:	cf 91       	pop	r28
    11c0:	08 95       	ret

000011c2 <fDin_Out>:
  S_1, S_2, S_3,
  1, ~0b00000001
};

void fDin_Out(u16 data)
{
    11c2:	cf 93       	push	r28
    11c4:	df 93       	push	r29
    11c6:	ec 01       	movw	r28, r24
  if (vLED_CA_CC) {
    11c8:	80 91 a5 01 	lds	r24, 0x01A5
    11cc:	88 23       	and	r24, r24
    11ce:	11 f0       	breq	.+4      	; 0x11d4 <fDin_Out+0x12>
    data = ~data;
    11d0:	c0 95       	com	r28
    11d2:	d0 95       	com	r29
  }

  fOut_vPort(1, ((data >> 8) & 0xff), IDPORT);
    11d4:	40 e0       	ldi	r20, 0x00	; 0
    11d6:	50 e0       	ldi	r21, 0x00	; 0
    11d8:	6d 2f       	mov	r22, r29
    11da:	81 e0       	ldi	r24, 0x01	; 1
    11dc:	0e 94 34 0b 	call	0x1668	; 0x1668 <fOut_vPort>
  fOut_vPort(0, ((data >> 0) & 0xff), IDPORT);
    11e0:	40 e0       	ldi	r20, 0x00	; 0
    11e2:	50 e0       	ldi	r21, 0x00	; 0
    11e4:	6c 2f       	mov	r22, r28
    11e6:	80 e0       	ldi	r24, 0x00	; 0
}
    11e8:	df 91       	pop	r29
    11ea:	cf 91       	pop	r28
  if (vLED_CA_CC) {
    data = ~data;
  }

  fOut_vPort(1, ((data >> 8) & 0xff), IDPORT);
  fOut_vPort(0, ((data >> 0) & 0xff), IDPORT);
    11ec:	0c 94 34 0b 	jmp	0x1668	; 0x1668 <fOut_vPort>

000011f0 <fDin_Init>:


void fDin_Init()
{
  //{* Настройка физического канала передачи данных для динамической индикации */
  mSet_fDin_Out(fDin_Out);     /* Загрузка указателя на функцию вывода в порт */
    11f0:	81 ee       	ldi	r24, 0xE1	; 225
    11f2:	98 e0       	ldi	r25, 0x08	; 8
    11f4:	90 93 a7 01 	sts	0x01A7, r25
    11f8:	80 93 a6 01 	sts	0x01A6, r24
  //}* Настройка физического канала передачи данных для динамической индикации */
  // < Все разряды настроим на вывод
  fOut_vPort(0, 0xff, IDDDR);
    11fc:	41 e0       	ldi	r20, 0x01	; 1
    11fe:	50 e0       	ldi	r21, 0x00	; 0
    1200:	6f ef       	ldi	r22, 0xFF	; 255
    1202:	80 e0       	ldi	r24, 0x00	; 0
    1204:	0e 94 34 0b 	call	0x1668	; 0x1668 <fOut_vPort>
  fOut_vPort(1, 0xff, IDDDR);
    1208:	41 e0       	ldi	r20, 0x01	; 1
    120a:	50 e0       	ldi	r21, 0x00	; 0
    120c:	6f ef       	ldi	r22, 0xFF	; 255
    120e:	81 e0       	ldi	r24, 0x01	; 1
    1210:	0e 94 34 0b 	call	0x1668	; 0x1668 <fOut_vPort>
  // > Все разряды настроим на вывод
  // < Тушим все разряды
  pfDin_Out(0xff00);
    1214:	e0 91 a6 01 	lds	r30, 0x01A6
    1218:	f0 91 a7 01 	lds	r31, 0x01A7
    121c:	80 e0       	ldi	r24, 0x00	; 0
    121e:	9f ef       	ldi	r25, 0xFF	; 255
    1220:	09 95       	icall
  // > Тушим все разряды
  vDinCnt = 0b00000001;
    1222:	e6 e6       	ldi	r30, 0x66	; 102
    1224:	f0 e0       	ldi	r31, 0x00	; 0
    1226:	81 e0       	ldi	r24, 0x01	; 1
    1228:	83 83       	std	Z+3, r24	; 0x03
  vDinMsk = 0b00000001;
    122a:	84 83       	std	Z+4, r24	; 0x04
    122c:	08 95       	ret

0000122e <fDin_Fresh>:
//;###############################################################################
void fDin_Fresh()
{
  u16 tmp_1;
  { /* < Calc next position */
    vDinMsk = (vDinMsk << 1);
    122e:	80 91 6a 00 	lds	r24, 0x006A
    1232:	88 0f       	add	r24, r24
    1234:	80 93 6a 00 	sts	0x006A, r24
    vDinCnt++;
    1238:	80 91 69 00 	lds	r24, 0x0069
    123c:	8f 5f       	subi	r24, 0xFF	; 255
    123e:	80 93 69 00 	sts	0x0069, r24
    // < Тушим все разряды
    pfDin_Out(0xff00);
    1242:	e0 91 a6 01 	lds	r30, 0x01A6
    1246:	f0 91 a7 01 	lds	r31, 0x01A7
    124a:	80 e0       	ldi	r24, 0x00	; 0
    124c:	9f ef       	ldi	r25, 0xFF	; 255
    124e:	09 95       	icall
    // > Тушим все разряды

    if (vDinCnt >= (mItems(vDinam) - 2)) {
    1250:	80 91 69 00 	lds	r24, 0x0069
    1254:	83 30       	cpi	r24, 0x03	; 3
    1256:	38 f0       	brcs	.+14     	; 0x1266 <fDin_Fresh+0x38>
      vDinCnt = 0;
    1258:	10 92 69 00 	sts	0x0069, r1
      vDinMsk = 0b00000001;
    125c:	81 e0       	ldi	r24, 0x01	; 1
    125e:	80 93 6a 00 	sts	0x006A, r24
      fKBD_Exe();
    1262:	0e 94 75 08 	call	0x10ea	; 0x10ea <fKBD_Exe>
    }
  } /* > Calc next position */

  if (vDinOff & 1) return;
    1266:	80 91 a4 01 	lds	r24, 0x01A4
    126a:	80 fd       	sbrc	r24, 0
    126c:	10 c0       	rjmp	.+32     	; 0x128e <fDin_Fresh+0x60>

  u08 tmp_3 = vDinam[vDinCnt];
    126e:	e0 91 69 00 	lds	r30, 0x0069
    1272:	f0 e0       	ldi	r31, 0x00	; 0
    1274:	ea 59       	subi	r30, 0x9A	; 154
    1276:	ff 4f       	sbci	r31, 0xFF	; 255
  u08 tmp_2 = ~vDinMsk;
  tmp_1 = tmp_2 << 8 | tmp_3;
    1278:	80 81       	ld	r24, Z
  } /* > Calc next position */

  if (vDinOff & 1) return;

  u08 tmp_3 = vDinam[vDinCnt];
  u08 tmp_2 = ~vDinMsk;
    127a:	20 91 6a 00 	lds	r18, 0x006A
    127e:	20 95       	com	r18
  tmp_1 = tmp_2 << 8 | tmp_3;
    1280:	90 e0       	ldi	r25, 0x00	; 0
  //tmp_1 |= tmp_3;
  pfDin_Out(tmp_1);
    1282:	e0 91 a6 01 	lds	r30, 0x01A6
    1286:	f0 91 a7 01 	lds	r31, 0x01A7
    128a:	92 2b       	or	r25, r18
    128c:	09 94       	ijmp
    128e:	08 95       	ret

00001290 <fB27S>:
};


u08 fB27S(u08 Data)
{
  return  Tab_7Seg[Data];
    1290:	e8 2f       	mov	r30, r24
    1292:	f0 e0       	ldi	r31, 0x00	; 0
    1294:	ef 54       	subi	r30, 0x4F	; 79
    1296:	ff 4f       	sbci	r31, 0xFF	; 255
}
    1298:	84 91       	lpm	r24, Z
    129a:	08 95       	ret

0000129c <fMenuSendMsg>:
/// TODO (Admin#1#):

//PROC fMenuSendMsg
void fMenuSendMsg(eMENU_MSG_t Menu_Msg)
{
  v_Menu.Msg = Menu_Msg;
    129c:	e1 eb       	ldi	r30, 0xB1	; 177
    129e:	f1 e0       	ldi	r31, 0x01	; 1
    12a0:	94 83       	std	Z+4, r25	; 0x04
    12a2:	83 83       	std	Z+3, r24	; 0x03
  krSendTask(v_Menu.TaskID);
    12a4:	85 81       	ldd	r24, Z+5	; 0x05
    12a6:	0c 94 2a 0e 	jmp	0x1c54	; 0x1c54 <krSendTask>

000012aa <fMenuGetHndCtrl>:
*/
const Ctrl_t __flash *fMenuGetHndCtrl(void)
{
  const Ctrl_t __flash *pCtrl;

  if (v_Menu.C_Indx > (u16)v_Menu.hMenu[0]) {
    12aa:	e0 91 b1 01 	lds	r30, 0x01B1
    12ae:	f0 91 b2 01 	lds	r31, 0x01B2
    12b2:	80 91 b3 01 	lds	r24, 0x01B3
    12b6:	90 e0       	ldi	r25, 0x00	; 0
    12b8:	25 91       	lpm	r18, Z+
    12ba:	35 91       	lpm	r19, Z+
    12bc:	32 97       	sbiw	r30, 0x02	; 2
    12be:	28 17       	cp	r18, r24
    12c0:	39 07       	cpc	r19, r25
    12c2:	18 f4       	brcc	.+6      	; 0x12ca <fMenuGetHndCtrl+0x20>
    v_Menu.C_Indx = 1;
    12c4:	81 e0       	ldi	r24, 0x01	; 1
    12c6:	80 93 b3 01 	sts	0x01B3, r24
  }

  if (v_Menu.C_Indx < 1) {
    12ca:	80 91 b3 01 	lds	r24, 0x01B3
    12ce:	81 11       	cpse	r24, r1
    12d0:	05 c0       	rjmp	.+10     	; 0x12dc <fMenuGetHndCtrl+0x32>
    v_Menu.C_Indx = (u16)v_Menu.hMenu[0];
    12d2:	85 91       	lpm	r24, Z+
    12d4:	95 91       	lpm	r25, Z+
    12d6:	32 97       	sbiw	r30, 0x02	; 2
    12d8:	80 93 b3 01 	sts	0x01B3, r24
  }

  pCtrl = v_Menu.hMenu[v_Menu.C_Indx];
    12dc:	80 91 b3 01 	lds	r24, 0x01B3
    12e0:	e8 0f       	add	r30, r24
    12e2:	f1 1d       	adc	r31, r1
    12e4:	e8 0f       	add	r30, r24
    12e6:	f1 1d       	adc	r31, r1
    12e8:	85 91       	lpm	r24, Z+
    12ea:	95 91       	lpm	r25, Z+
  v_Menu.TaskID = pCtrl->TaskID;
    12ec:	fc 01       	movw	r30, r24
    12ee:	3a 96       	adiw	r30, 0x0a	; 10
    12f0:	24 91       	lpm	r18, Z
    12f2:	20 93 b6 01 	sts	0x01B6, r18
  return pCtrl;
} /* fMenuGetHndCtrl */
    12f6:	08 95       	ret

000012f8 <fMenuInit>:
////;
//*/
void fMenuInit(void)
{
  volatile Flg_t *pFlg = (Flg_t*)(&gFlagsL); /* Инициализация указателя на структуру флагов */
  fSetsRead();
    12f8:	0e 94 63 0f 	call	0x1ec6	; 0x1ec6 <fSetsRead>

  if (pFlg->CfgOK != 1) { // Проверка флага с настройками всё впорядке/
    12fc:	01 99       	sbic	0x00, 1	; 0
    12fe:	06 c0       	rjmp	.+12     	; 0x130c <fMenuInit+0x14>
    vState = FAULT;
    1300:	8d e0       	ldi	r24, 0x0D	; 13
    1302:	90 e0       	ldi	r25, 0x00	; 0
    1304:	90 93 98 00 	sts	0x0098, r25
    1308:	80 93 97 00 	sts	0x0097, r24
  } else {
    //vState = STOP;
  }

  vRegParam.Temp = 273 + vSets.Temp1;
    130c:	80 91 eb 01 	lds	r24, 0x01EB
    1310:	90 91 ec 01 	lds	r25, 0x01EC
    1314:	8f 5e       	subi	r24, 0xEF	; 239
    1316:	9e 4f       	sbci	r25, 0xFE	; 254
    1318:	90 93 c3 01 	sts	0x01C3, r25
    131c:	80 93 c2 01 	sts	0x01C2, r24
  vRegParam.ADC_Temp = fGetADC_from_TempLM335(vRegParam.Temp);
    1320:	0e 94 3d 04 	call	0x87a	; 0x87a <fGetADC_from_TempLM335>
    1324:	90 93 c1 01 	sts	0x01C1, r25
    1328:	80 93 c0 01 	sts	0x01C0, r24
  //}
  flgTimerEdit = 0;
    132c:	10 92 b0 01 	sts	0x01B0, r1
  v_Menu.hMenu = (Ctrl_t**)&Menu_Main;
    1330:	87 ec       	ldi	r24, 0xC7	; 199
    1332:	90 e0       	ldi	r25, 0x00	; 0
    1334:	90 93 b2 01 	sts	0x01B2, r25
    1338:	80 93 b1 01 	sts	0x01B1, r24
  v_Menu.C_Indx = 1;
    133c:	81 e0       	ldi	r24, 0x01	; 1
    133e:	80 93 b3 01 	sts	0x01B3, r24
  v_Menu.vMode = IDLE;
    1342:	10 92 b8 01 	sts	0x01B8, r1
    1346:	10 92 b7 01 	sts	0x01B7, r1
  v_Menu.Msg = MSG_DRAW;
    134a:	81 e0       	ldi	r24, 0x01	; 1
    134c:	90 e0       	ldi	r25, 0x00	; 0
    134e:	90 93 b5 01 	sts	0x01B5, r25
    1352:	80 93 b4 01 	sts	0x01B4, r24
  fMenuGetHndCtrl();
    1356:	0c 94 55 09 	jmp	0x12aa	; 0x12aa <fMenuGetHndCtrl>

0000135a <fMenuDraw_szItemMenu>:
}/* fMenuDraw */



void fMenuDraw_szItemMenu(const Ctrl_t __flash *pCtrl)
{
    135a:	cf 93       	push	r28
    135c:	df 93       	push	r29
  const u08 __flash *psz;
  psz = pCtrl->pszItemMenu;
    135e:	fc 01       	movw	r30, r24
    1360:	c5 91       	lpm	r28, Z+
    1362:	d5 91       	lpm	r29, Z+
  krMemCopyF2R(psz, szParamName_Buf, 3);
    1364:	43 e0       	ldi	r20, 0x03	; 3
    1366:	64 ed       	ldi	r22, 0xD4	; 212
    1368:	71 e0       	ldi	r23, 0x01	; 1
    136a:	ce 01       	movw	r24, r28
    136c:	0e 94 c0 0e 	call	0x1d80	; 0x1d80 <krMemCopyF2R>
  krMemCopyF2R(psz, szParamVal_Buf, 3);
    1370:	43 e0       	ldi	r20, 0x03	; 3
    1372:	6c ec       	ldi	r22, 0xCC	; 204
    1374:	71 e0       	ldi	r23, 0x01	; 1
    1376:	ce 01       	movw	r24, r28
}
    1378:	df 91       	pop	r29
    137a:	cf 91       	pop	r28
void fMenuDraw_szItemMenu(const Ctrl_t __flash *pCtrl)
{
  const u08 __flash *psz;
  psz = pCtrl->pszItemMenu;
  krMemCopyF2R(psz, szParamName_Buf, 3);
  krMemCopyF2R(psz, szParamVal_Buf, 3);
    137c:	0c 94 c0 0e 	jmp	0x1d80	; 0x1d80 <krMemCopyF2R>

00001380 <fMenuDrawCtrl>:
const char __flash StrLED_StP[] = {S_S, S_t, S_P};
const char __flash StrLED_Brn[] = {S_B, S_r, S_n};


void fMenuDrawCtrl(void)
{
    1380:	cf 93       	push	r28
    1382:	df 93       	push	r29
  const Ctrl_t __flash *pCtrl;
  pCtrl = fMenuGetHndCtrl();
    1384:	0e 94 55 09 	call	0x12aa	; 0x12aa <fMenuGetHndCtrl>
    1388:	ec 01       	movw	r28, r24
  /* NAME */
  fMenuDraw_szItemMenu(pCtrl);
    138a:	0e 94 ad 09 	call	0x135a	; 0x135a <fMenuDraw_szItemMenu>

  if (pCtrl == &CB_RunStop) {
    138e:	80 e0       	ldi	r24, 0x00	; 0
    1390:	c7 3d       	cpi	r28, 0xD7	; 215
    1392:	d8 07       	cpc	r29, r24
    1394:	91 f4       	brne	.+36     	; 0x13ba <fMenuDrawCtrl+0x3a>
    switch (vState) {
    1396:	80 91 97 00 	lds	r24, 0x0097
    139a:	90 91 98 00 	lds	r25, 0x0098
    139e:	00 97       	sbiw	r24, 0x00	; 0
    13a0:	61 f0       	breq	.+24     	; 0x13ba <fMenuDrawCtrl+0x3a>
          //            krMemCopyF2R(StrLED_run, szParamName_Buf, 3);
          break;
        }

      case AFTERBURN: {
          krMemCopyF2R((u08*)StrLED_StP, szParamName_Buf, 3);
    13a2:	43 e0       	ldi	r20, 0x03	; 3
    13a4:	64 ed       	ldi	r22, 0xD4	; 212
    13a6:	71 e0       	ldi	r23, 0x01	; 1
  pCtrl = fMenuGetHndCtrl();
  /* NAME */
  fMenuDraw_szItemMenu(pCtrl);

  if (pCtrl == &CB_RunStop) {
    switch (vState) {
    13a8:	0c 97       	sbiw	r24, 0x0c	; 12
    13aa:	19 f4       	brne	.+6      	; 0x13b2 <fMenuDrawCtrl+0x32>
          //            krMemCopyF2R(StrLED_run, szParamName_Buf, 3);
          break;
        }

      case AFTERBURN: {
          krMemCopyF2R((u08*)StrLED_StP, szParamName_Buf, 3);
    13ac:	84 ec       	ldi	r24, 0xC4	; 196
    13ae:	90 e0       	ldi	r25, 0x00	; 0
    13b0:	02 c0       	rjmp	.+4      	; 0x13b6 <fMenuDrawCtrl+0x36>
          break;
        }

      default: {
          krMemCopyF2R((u08*)StrLED_Brn, szParamName_Buf, 3);
    13b2:	81 ec       	ldi	r24, 0xC1	; 193
    13b4:	90 e0       	ldi	r25, 0x00	; 0
    13b6:	0e 94 c0 0e 	call	0x1d80	; 0x1d80 <krMemCopyF2R>
          break;
        }
    }
  }

  switch (pCtrl->MenuType) {
    13ba:	fe 01       	movw	r30, r28
    13bc:	32 96       	adiw	r30, 0x02	; 2
    13be:	85 91       	lpm	r24, Z+
    13c0:	95 91       	lpm	r25, Z+
    13c2:	32 97       	sbiw	r30, 0x02	; 2
    13c4:	01 97       	sbiw	r24, 0x01	; 1
    13c6:	91 f5       	brne	.+100    	; 0x142c <fMenuDrawCtrl+0xac>
    case MT_UNUM: {
        u16 val;
        val = *pCtrl->pParam.u16Val;
    13c8:	32 96       	adiw	r30, 0x02	; 2
    13ca:	a5 91       	lpm	r26, Z+
    13cc:	b5 91       	lpm	r27, Z+
    13ce:	32 97       	sbiw	r30, 0x02	; 2

        if (val <= pCtrl->ExPrm1.u_Min) {
    13d0:	32 96       	adiw	r30, 0x02	; 2
    13d2:	85 91       	lpm	r24, Z+
    13d4:	95 91       	lpm	r25, Z+
    13d6:	2d 91       	ld	r18, X+
    13d8:	3c 91       	ld	r19, X
    13da:	11 97       	sbiw	r26, 0x01	; 1
    13dc:	28 17       	cp	r18, r24
    13de:	39 07       	cpc	r19, r25
    13e0:	08 f4       	brcc	.+2      	; 0x13e4 <fMenuDrawCtrl+0x64>
    13e2:	9c 01       	movw	r18, r24
          val = pCtrl->ExPrm1.u_Min;
        }

        if (val >= pCtrl->ExPrm2.u_Max) {
    13e4:	fe 01       	movw	r30, r28
    13e6:	38 96       	adiw	r30, 0x08	; 8
    13e8:	45 91       	lpm	r20, Z+
    13ea:	55 91       	lpm	r21, Z+
    13ec:	c9 01       	movw	r24, r18
    13ee:	42 17       	cp	r20, r18
    13f0:	53 07       	cpc	r21, r19
    13f2:	08 f4       	brcc	.+2      	; 0x13f6 <fMenuDrawCtrl+0x76>
    13f4:	ca 01       	movw	r24, r20
          val = pCtrl->ExPrm2.u_Max;
        }

        *pCtrl->pParam.u16Val = val;
    13f6:	8d 93       	st	X+, r24
    13f8:	9c 93       	st	X, r25
        xsprintf((char*)szParamVal_Buf, fmt_3u, val);
    13fa:	9f 93       	push	r25
    13fc:	8f 93       	push	r24
    13fe:	80 e7       	ldi	r24, 0x70	; 112
    1400:	91 e0       	ldi	r25, 0x01	; 1
    1402:	9f 93       	push	r25
    1404:	8f 93       	push	r24
    1406:	8c ec       	ldi	r24, 0xCC	; 204
    1408:	91 e0       	ldi	r25, 0x01	; 1
    140a:	9f 93       	push	r25
    140c:	8f 93       	push	r24
    140e:	0e 94 34 0c 	call	0x1868	; 0x1868 <xsprintf>
        fASCII2_LED(szParamVal_Buf, 3);
    1412:	0f 90       	pop	r0
    1414:	0f 90       	pop	r0
    1416:	0f 90       	pop	r0
    1418:	0f 90       	pop	r0
    141a:	0f 90       	pop	r0
    141c:	0f 90       	pop	r0
    141e:	63 e0       	ldi	r22, 0x03	; 3
    1420:	8c ec       	ldi	r24, 0xCC	; 204
    1422:	91 e0       	ldi	r25, 0x01	; 1
        break;
      }
  } /* switch (pCtrl->MenuType) */

  return;
}
    1424:	df 91       	pop	r29
    1426:	cf 91       	pop	r28
          val = pCtrl->ExPrm2.u_Max;
        }

        *pCtrl->pParam.u16Val = val;
        xsprintf((char*)szParamVal_Buf, fmt_3u, val);
        fASCII2_LED(szParamVal_Buf, 3);
    1428:	0c 94 a4 0c 	jmp	0x1948	; 0x1948 <fASCII2_LED>
        break;
      }
  } /* switch (pCtrl->MenuType) */

  return;
}
    142c:	df 91       	pop	r29
    142e:	cf 91       	pop	r28
    1430:	08 95       	ret

00001432 <fMenuDraw>:
  return;
} /* fMenuDefProc */

void fMenuDraw(void)
{
  fMenuDrawCtrl();
    1432:	0c 94 c0 09 	jmp	0x1380	; 0x1380 <fMenuDrawCtrl>

00001436 <fMenuNext>:
}


void fMenuNext(void)
{
  v_Menu.C_Indx++;
    1436:	e1 eb       	ldi	r30, 0xB1	; 177
    1438:	f1 e0       	ldi	r31, 0x01	; 1
    143a:	82 81       	ldd	r24, Z+2	; 0x02
    143c:	8f 5f       	subi	r24, 0xFF	; 255
    143e:	82 83       	std	Z+2, r24	; 0x02
    1440:	08 95       	ret

00001442 <fMenuPrev>:
}
//ENDP fMenuNext

void fMenuPrev(void)
{
  v_Menu.C_Indx--;
    1442:	e1 eb       	ldi	r30, 0xB1	; 177
    1444:	f1 e0       	ldi	r31, 0x01	; 1
    1446:	82 81       	ldd	r24, Z+2	; 0x02
    1448:	81 50       	subi	r24, 0x01	; 1
    144a:	82 83       	std	Z+2, r24	; 0x02
    144c:	08 95       	ret

0000144e <fMenuSelect>:
//ENDP fMenuPrev
void fMenuSelect(void)
{
  const Ctrl_t __flash *pCtrl;
  //pCtrl = v_Menu.hMenu[v_Menu.C_Indx];
  pCtrl = fMenuGetHndCtrl();
    144e:	0e 94 55 09 	call	0x12aa	; 0x12aa <fMenuGetHndCtrl>

  switch (pCtrl->MenuType) {
    1452:	02 96       	adiw	r24, 0x02	; 2
    1454:	fc 01       	movw	r30, r24
    1456:	85 91       	lpm	r24, Z+
    1458:	95 91       	lpm	r25, Z+
    145a:	81 30       	cpi	r24, 0x01	; 1
    145c:	91 05       	cpc	r25, r1
    145e:	c1 f4       	brne	.+48     	; 0x1490 <fMenuSelect+0x42>
      //case MT_SNUM:

      //    case MT_LST:
      //    case MT_STR:
      //    case MT_LST_RAM:
      switch (v_Menu.vMode) {
    1460:	20 91 b7 01 	lds	r18, 0x01B7
    1464:	30 91 b8 01 	lds	r19, 0x01B8
    1468:	21 30       	cpi	r18, 0x01	; 1
    146a:	31 05       	cpc	r19, r1
    146c:	21 f0       	breq	.+8      	; 0x1476 <fMenuSelect+0x28>
    146e:	22 30       	cpi	r18, 0x02	; 2
    1470:	31 05       	cpc	r19, r1
    1472:	41 f0       	breq	.+16     	; 0x1484 <fMenuSelect+0x36>
    1474:	08 95       	ret
        case NORMAL: {
            v_Menu.vMode = EDIT;
    1476:	82 e0       	ldi	r24, 0x02	; 2
    1478:	90 e0       	ldi	r25, 0x00	; 0
    147a:	90 93 b8 01 	sts	0x01B8, r25
    147e:	80 93 b7 01 	sts	0x01B7, r24
    1482:	08 95       	ret
            break;
          }

        case EDIT: {
            v_Menu.vMode = NORMAL;
    1484:	90 93 b8 01 	sts	0x01B8, r25
    1488:	80 93 b7 01 	sts	0x01B7, r24
            fSetsWrite();
    148c:	0c 94 9a 0f 	jmp	0x1f34	; 0x1f34 <fSetsWrite>
    1490:	08 95       	ret

00001492 <fMenuDefProc>:

*/


void fMenuDefProc(void)
{
    1492:	cf 93       	push	r28
    1494:	df 93       	push	r29
  if (v_Menu.Msg != MSG_NOT) {
    1496:	c0 91 b4 01 	lds	r28, 0x01B4
    149a:	d0 91 b5 01 	lds	r29, 0x01B5
    149e:	20 97       	sbiw	r28, 0x00	; 0
    14a0:	81 f1       	breq	.+96     	; 0x1502 <fMenuDefProc+0x70>
    switch (v_Menu.Msg) {
    14a2:	c4 30       	cpi	r28, 0x04	; 4
    14a4:	d1 05       	cpc	r29, r1
    14a6:	d9 f0       	breq	.+54     	; 0x14de <fMenuDefProc+0x4c>
    14a8:	40 f4       	brcc	.+16     	; 0x14ba <fMenuDefProc+0x28>
    14aa:	c1 30       	cpi	r28, 0x01	; 1
    14ac:	d1 05       	cpc	r29, r1
    14ae:	81 f0       	breq	.+32     	; 0x14d0 <fMenuDefProc+0x3e>
    14b0:	23 97       	sbiw	r28, 0x03	; 3
    14b2:	19 f5       	brne	.+70     	; 0x14fa <fMenuDefProc+0x68>
        fMenuDraw();
        v_Menu.Msg = MSG_DRAW;
        break;

      case (MSG_NEXT):
        fMenuNext();
    14b4:	0e 94 1b 0a 	call	0x1436	; 0x1436 <fMenuNext>
    14b8:	14 c0       	rjmp	.+40     	; 0x14e2 <fMenuDefProc+0x50>


void fMenuDefProc(void)
{
  if (v_Menu.Msg != MSG_NOT) {
    switch (v_Menu.Msg) {
    14ba:	c7 30       	cpi	r28, 0x07	; 7
    14bc:	d1 05       	cpc	r29, r1
    14be:	e8 f0       	brcs	.+58     	; 0x14fa <fMenuDefProc+0x68>
    14c0:	c9 30       	cpi	r28, 0x09	; 9
    14c2:	d1 05       	cpc	r29, r1
    14c4:	a8 f0       	brcs	.+42     	; 0x14f0 <fMenuDefProc+0x5e>
    14c6:	29 97       	sbiw	r28, 0x09	; 9
    14c8:	c1 f4       	brne	.+48     	; 0x14fa <fMenuDefProc+0x68>
        fMenuPrev();
        v_Menu.Msg = MSG_DRAW;
        break;

      case (MSG_SELECT):
        fMenuSelect();
    14ca:	0e 94 27 0a 	call	0x144e	; 0x144e <fMenuSelect>
    14ce:	09 c0       	rjmp	.+18     	; 0x14e2 <fMenuDefProc+0x50>
  return;
} /* fMenuDefProc */

void fMenuDraw(void)
{
  fMenuDrawCtrl();
    14d0:	0e 94 c0 09 	call	0x1380	; 0x1380 <fMenuDrawCtrl>
{
  if (v_Menu.Msg != MSG_NOT) {
    switch (v_Menu.Msg) {
      case (MSG_DRAW):
        fMenuDraw();
        v_Menu.Msg = MSG_DRAW;
    14d4:	d0 93 b5 01 	sts	0x01B5, r29
    14d8:	c0 93 b4 01 	sts	0x01B4, r28
        break;
    14dc:	12 c0       	rjmp	.+36     	; 0x1502 <fMenuDefProc+0x70>
        fMenuNext();
        v_Menu.Msg = MSG_DRAW;
        break;

      case (MSG_PREV):
        fMenuPrev();
    14de:	0e 94 21 0a 	call	0x1442	; 0x1442 <fMenuPrev>
        v_Menu.Msg = MSG_DRAW;
        break;

      case (MSG_SELECT):
        fMenuSelect();
        v_Menu.Msg = MSG_DRAW;
    14e2:	81 e0       	ldi	r24, 0x01	; 1
    14e4:	90 e0       	ldi	r25, 0x00	; 0
    14e6:	90 93 b5 01 	sts	0x01B5, r25
    14ea:	80 93 b4 01 	sts	0x01B4, r24
        break;
    14ee:	09 c0       	rjmp	.+18     	; 0x1502 <fMenuDefProc+0x70>

      case (MSG_PARAM_DEC):
      case (MSG_PARAM_INC): {
          mSendTask(fMenuParamIncDec);
    14f0:	8d e0       	ldi	r24, 0x0D	; 13
    // mSendTask(fMenuDraw);
  }

  //fMenuDraw();
  return;
} /* fMenuDefProc */
    14f2:	df 91       	pop	r29
    14f4:	cf 91       	pop	r28
        v_Menu.Msg = MSG_DRAW;
        break;

      case (MSG_PARAM_DEC):
      case (MSG_PARAM_INC): {
          mSendTask(fMenuParamIncDec);
    14f6:	0c 94 2a 0e 	jmp	0x1c54	; 0x1c54 <krSendTask>
          //v_Menu.Msg = MSG_DRAW;
          break;
        }

      default: {
          v_Menu.Msg = MSG_NOT;
    14fa:	10 92 b5 01 	sts	0x01B5, r1
    14fe:	10 92 b4 01 	sts	0x01B4, r1
    // mSendTask(fMenuDraw);
  }

  //fMenuDraw();
  return;
} /* fMenuDefProc */
    1502:	df 91       	pop	r29
    1504:	cf 91       	pop	r28
    1506:	08 95       	ret

00001508 <fMenuButtonProc>:
}
//ENDP fMenuSelect
void fMenuButtonProc(void)
{
  const Ctrl_t __flash *pCtrl;
  pCtrl = fMenuGetHndCtrl();
    1508:	0e 94 55 09 	call	0x12aa	; 0x12aa <fMenuGetHndCtrl>

  switch (v_Menu.Msg) {
    150c:	20 91 b4 01 	lds	r18, 0x01B4
    1510:	30 91 b5 01 	lds	r19, 0x01B5
    1514:	25 30       	cpi	r18, 0x05	; 5
    1516:	31 05       	cpc	r19, r1
    1518:	31 f0       	breq	.+12     	; 0x1526 <fMenuButtonProc+0x1e>
    151a:	26 30       	cpi	r18, 0x06	; 6
    151c:	31 05       	cpc	r19, r1
    151e:	71 f4       	brne	.+28     	; 0x153c <fMenuButtonProc+0x34>
      krSendTask(pCtrl->ExPrm1.BtnDnTaskID);
      v_Menu.Msg = MSG_DRAW;
      break;

    case MSG_SWUP:
      krSendTask(pCtrl->ExPrm2.BtnUpTaskID);
    1520:	fc 01       	movw	r30, r24
    1522:	38 96       	adiw	r30, 0x08	; 8
    1524:	02 c0       	rjmp	.+4      	; 0x152a <fMenuButtonProc+0x22>
  const Ctrl_t __flash *pCtrl;
  pCtrl = fMenuGetHndCtrl();

  switch (v_Menu.Msg) {
    case MSG_SWDN:
      krSendTask(pCtrl->ExPrm1.BtnDnTaskID);
    1526:	fc 01       	movw	r30, r24
    1528:	36 96       	adiw	r30, 0x06	; 6
      v_Menu.Msg = MSG_DRAW;
      break;

    case MSG_SWUP:
      krSendTask(pCtrl->ExPrm2.BtnUpTaskID);
    152a:	84 91       	lpm	r24, Z
    152c:	0e 94 2a 0e 	call	0x1c54	; 0x1c54 <krSendTask>
      v_Menu.Msg = MSG_DRAW;
    1530:	81 e0       	ldi	r24, 0x01	; 1
    1532:	90 e0       	ldi	r25, 0x00	; 0
    1534:	90 93 b5 01 	sts	0x01B5, r25
    1538:	80 93 b4 01 	sts	0x01B4, r24

    default:
      break;
  }

  fMenuDefProc();
    153c:	0c 94 49 0a 	jmp	0x1492	; 0x1492 <fMenuDefProc>

00001540 <fMenuDefEditProc>:
} /* fMenuButtonProc */
void fMenuDefEditProc(void)
{
  switch (v_Menu.vMode) {
    1540:	80 91 b7 01 	lds	r24, 0x01B7
    1544:	90 91 b8 01 	lds	r25, 0x01B8
    1548:	81 30       	cpi	r24, 0x01	; 1
    154a:	91 05       	cpc	r25, r1
    154c:	19 f0       	breq	.+6      	; 0x1554 <fMenuDefEditProc+0x14>
    154e:	02 97       	sbiw	r24, 0x02	; 2
    1550:	41 f0       	breq	.+16     	; 0x1562 <fMenuDefEditProc+0x22>
    1552:	1f c0       	rjmp	.+62     	; 0x1592 <fMenuDefEditProc+0x52>
    case NORMAL: {
        switch (v_Menu.Msg) {
    1554:	80 91 b4 01 	lds	r24, 0x01B4
    1558:	90 91 b5 01 	lds	r25, 0x01B5
    155c:	06 97       	sbiw	r24, 0x06	; 6
    155e:	c9 f4       	brne	.+50     	; 0x1592 <fMenuDefEditProc+0x52>
    1560:	12 c0       	rjmp	.+36     	; 0x1586 <fMenuDefEditProc+0x46>
        }
      }
      break;

    case EDIT: {
        switch (v_Menu.Msg) {
    1562:	80 91 b4 01 	lds	r24, 0x01B4
    1566:	90 91 b5 01 	lds	r25, 0x01B5
    156a:	84 30       	cpi	r24, 0x04	; 4
    156c:	91 05       	cpc	r25, r1
    156e:	41 f0       	breq	.+16     	; 0x1580 <fMenuDefEditProc+0x40>
    1570:	86 30       	cpi	r24, 0x06	; 6
    1572:	91 05       	cpc	r25, r1
    1574:	41 f0       	breq	.+16     	; 0x1586 <fMenuDefEditProc+0x46>
    1576:	03 97       	sbiw	r24, 0x03	; 3
    1578:	61 f4       	brne	.+24     	; 0x1592 <fMenuDefEditProc+0x52>
          case MSG_NEXT: {
              v_Menu.Msg = MSG_PARAM_INC;
    157a:	87 e0       	ldi	r24, 0x07	; 7
    157c:	90 e0       	ldi	r25, 0x00	; 0
    157e:	05 c0       	rjmp	.+10     	; 0x158a <fMenuDefEditProc+0x4a>
              break;
            }

          case MSG_PREV: {
              v_Menu.Msg = MSG_PARAM_DEC;
    1580:	88 e0       	ldi	r24, 0x08	; 8
    1582:	90 e0       	ldi	r25, 0x00	; 0
    1584:	02 c0       	rjmp	.+4      	; 0x158a <fMenuDefEditProc+0x4a>
              break;
            }

          //case MSG_SWDN:
          case MSG_SWUP: {
              v_Menu.Msg = MSG_SELECT;
    1586:	89 e0       	ldi	r24, 0x09	; 9
    1588:	90 e0       	ldi	r25, 0x00	; 0
    158a:	90 93 b5 01 	sts	0x01B5, r25
    158e:	80 93 b4 01 	sts	0x01B4, r24

    default:
      break;
  }

  fMenuDefProc();
    1592:	0c 94 49 0a 	jmp	0x1492	; 0x1492 <fMenuDefProc>

00001596 <fGetIncDecVal>:
  v_Menu.Msg = MSG_DRAW;
} /* fMenuParamIncDec */
u08 fGetIncDecVal(u08 CntIncDec)
{
  u08 indx;
  indx = CntIncDec / 10;
    1596:	6a e0       	ldi	r22, 0x0A	; 10
    1598:	0e 94 03 10 	call	0x2006	; 0x2006 <__udivmodqi4>

  if (indx > 2) {
    159c:	83 30       	cpi	r24, 0x03	; 3
    159e:	08 f0       	brcs	.+2      	; 0x15a2 <fGetIncDecVal+0xc>
    indx = 4;
    15a0:	84 e0       	ldi	r24, 0x04	; 4
  }

  //indx &= 0b0001;
  return IncDecVal[indx];
    15a2:	e8 2f       	mov	r30, r24
    15a4:	f0 e0       	ldi	r31, 0x00	; 0
    15a6:	e7 5c       	subi	r30, 0xC7	; 199
    15a8:	fe 4f       	sbci	r31, 0xFE	; 254
}
    15aa:	84 91       	lpm	r24, Z
    15ac:	08 95       	ret

000015ae <fMenuParamIncDec>:
}

#endif // defined

void fMenuParamIncDec(void)
{
    15ae:	ff 92       	push	r15
    15b0:	0f 93       	push	r16
    15b2:	1f 93       	push	r17
    15b4:	cf 93       	push	r28
    15b6:	df 93       	push	r29
  const Ctrl_t __flash *pCtrl;
  //pCtrl = v_Menu.hMenu[v_Menu.C_Indx];
  pCtrl = fMenuGetHndCtrl();
    15b8:	0e 94 55 09 	call	0x12aa	; 0x12aa <fMenuGetHndCtrl>
    15bc:	ec 01       	movw	r28, r24
  static u08 CntUP = 0;
  static u08 CntDN = 0;
  u16 tmpInc;
  tmpInc = fGetIncDecVal(CntUP);
    15be:	f0 90 94 00 	lds	r15, 0x0094
    15c2:	8f 2d       	mov	r24, r15
    15c4:	0e 94 cb 0a 	call	0x1596	; 0x1596 <fGetIncDecVal>
    15c8:	08 2f       	mov	r16, r24
  u16 tmpDec;
  tmpDec = fGetIncDecVal(CntDN);
    15ca:	10 91 93 00 	lds	r17, 0x0093
    15ce:	81 2f       	mov	r24, r17
    15d0:	0e 94 cb 0a 	call	0x1596	; 0x1596 <fGetIncDecVal>
    15d4:	48 2f       	mov	r20, r24

  switch (pCtrl->MenuType) {
    15d6:	fe 01       	movw	r30, r28
    15d8:	32 96       	adiw	r30, 0x02	; 2
    15da:	85 91       	lpm	r24, Z+
    15dc:	95 91       	lpm	r25, Z+
    15de:	32 97       	sbiw	r30, 0x02	; 2
    15e0:	01 97       	sbiw	r24, 0x01	; 1
    15e2:	b1 f5       	brne	.+108    	; 0x1650 <fMenuParamIncDec+0xa2>
    case MT_UNUM: {
        u16 val;
        val = *pCtrl->pParam.u16Val;
    15e4:	32 96       	adiw	r30, 0x02	; 2
    15e6:	a5 91       	lpm	r26, Z+
    15e8:	b5 91       	lpm	r27, Z+
    15ea:	2d 91       	ld	r18, X+
    15ec:	3c 91       	ld	r19, X
    15ee:	11 97       	sbiw	r26, 0x01	; 1

        switch (v_Menu.Msg) {
    15f0:	80 91 b4 01 	lds	r24, 0x01B4
    15f4:	90 91 b5 01 	lds	r25, 0x01B5
    15f8:	87 30       	cpi	r24, 0x07	; 7
    15fa:	91 05       	cpc	r25, r1
    15fc:	19 f0       	breq	.+6      	; 0x1604 <fMenuParamIncDec+0x56>
    15fe:	08 97       	sbiw	r24, 0x08	; 8
    1600:	a1 f0       	breq	.+40     	; 0x162a <fMenuParamIncDec+0x7c>
    1602:	24 c0       	rjmp	.+72     	; 0x164c <fMenuParamIncDec+0x9e>
  //pCtrl = v_Menu.hMenu[v_Menu.C_Indx];
  pCtrl = fMenuGetHndCtrl();
  static u08 CntUP = 0;
  static u08 CntDN = 0;
  u16 tmpInc;
  tmpInc = fGetIncDecVal(CntUP);
    1604:	40 2f       	mov	r20, r16
    1606:	50 e0       	ldi	r21, 0x00	; 0
        u16 val;
        val = *pCtrl->pParam.u16Val;

        switch (v_Menu.Msg) {
          case MSG_PARAM_INC: {
              CntUP++;
    1608:	f3 94       	inc	r15
    160a:	f0 92 94 00 	sts	0x0094, r15
              CntDN = 0;
    160e:	10 92 93 00 	sts	0x0093, r1

              if (val <= (pCtrl->ExPrm2.u_Max - tmpInc)) {
    1612:	fe 01       	movw	r30, r28
    1614:	38 96       	adiw	r30, 0x08	; 8
    1616:	85 91       	lpm	r24, Z+
    1618:	95 91       	lpm	r25, Z+
    161a:	84 1b       	sub	r24, r20
    161c:	95 0b       	sbc	r25, r21
    161e:	82 17       	cp	r24, r18
    1620:	93 07       	cpc	r25, r19
    1622:	a0 f0       	brcs	.+40     	; 0x164c <fMenuParamIncDec+0x9e>
                val += tmpInc;
    1624:	24 0f       	add	r18, r20
    1626:	35 1f       	adc	r19, r21
    1628:	11 c0       	rjmp	.+34     	; 0x164c <fMenuParamIncDec+0x9e>
  static u08 CntUP = 0;
  static u08 CntDN = 0;
  u16 tmpInc;
  tmpInc = fGetIncDecVal(CntUP);
  u16 tmpDec;
  tmpDec = fGetIncDecVal(CntDN);
    162a:	50 e0       	ldi	r21, 0x00	; 0

              break;
            } /* MSG_PARAM_INC */

          case MSG_PARAM_DEC: {
              CntUP = 0;
    162c:	10 92 94 00 	sts	0x0094, r1
              CntDN++;
    1630:	1f 5f       	subi	r17, 0xFF	; 255
    1632:	10 93 93 00 	sts	0x0093, r17

              if (val >= (pCtrl->ExPrm1.u_Min + tmpDec)) {
    1636:	fe 01       	movw	r30, r28
    1638:	36 96       	adiw	r30, 0x06	; 6
    163a:	85 91       	lpm	r24, Z+
    163c:	95 91       	lpm	r25, Z+
    163e:	84 0f       	add	r24, r20
    1640:	95 1f       	adc	r25, r21
    1642:	28 17       	cp	r18, r24
    1644:	39 07       	cpc	r19, r25
    1646:	10 f0       	brcs	.+4      	; 0x164c <fMenuParamIncDec+0x9e>
                val -= tmpDec;
    1648:	24 1b       	sub	r18, r20
    164a:	35 0b       	sbc	r19, r21

          default:
            break;
        }

        *pCtrl->pParam.u16Val = val;
    164c:	2d 93       	st	X+, r18
    164e:	3c 93       	st	X, r19

    default:
      break;
  }

  v_Menu.Msg = MSG_DRAW;
    1650:	81 e0       	ldi	r24, 0x01	; 1
    1652:	90 e0       	ldi	r25, 0x00	; 0
    1654:	90 93 b5 01 	sts	0x01B5, r25
    1658:	80 93 b4 01 	sts	0x01B4, r24
} /* fMenuParamIncDec */
    165c:	df 91       	pop	r29
    165e:	cf 91       	pop	r28
    1660:	1f 91       	pop	r17
    1662:	0f 91       	pop	r16
    1664:	ff 90       	pop	r15
    1666:	08 95       	ret

00001668 <fOut_vPort>:
  u08 pPORT;
  volatile const __flash u08 *pvPort;
  u08 BitMsk;
  u08 BitCnt;
  u08 BitMskD;
  pvPort = vPorts[nPort];
    1668:	e8 2f       	mov	r30, r24
    166a:	f0 e0       	ldi	r31, 0x00	; 0
    166c:	ee 0f       	add	r30, r30
    166e:	ff 1f       	adc	r31, r31
    1670:	e5 59       	subi	r30, 0x95	; 149
    1672:	ff 4f       	sbci	r31, 0xFF	; 255
  BitCnt = *pvPort;
    1674:	80 81       	ld	r24, Z
    1676:	91 81       	ldd	r25, Z+1	; 0x01
    1678:	fc 01       	movw	r30, r24
    167a:	01 96       	adiw	r24, 0x01	; 1
    167c:	55 91       	lpm	r21, Z+
  pvPort++;
  BitMskD = 1;
    167e:	71 e0       	ldi	r23, 0x01	; 1

  while (BitCnt) {
    1680:	55 23       	and	r21, r21
    1682:	d9 f0       	breq	.+54     	; 0x16ba <fOut_vPort+0x52>
    BitMsk = vBits[*pvPort];
    1684:	dc 01       	movw	r26, r24
    1686:	fc 01       	movw	r30, r24
    1688:	11 96       	adiw	r26, 0x01	; 1
    168a:	25 91       	lpm	r18, Z+
    168c:	e2 2f       	mov	r30, r18
    168e:	f0 e0       	ldi	r31, 0x00	; 0
    1690:	e8 59       	subi	r30, 0x98	; 152
    1692:	fe 4f       	sbci	r31, 0xFE	; 254
    1694:	24 91       	lpm	r18, Z
    pvPort++;
    pPORT = *pvPort - Id_;
    1696:	fd 01       	movw	r30, r26
    1698:	34 91       	lpm	r19, Z
    169a:	02 96       	adiw	r24, 0x02	; 2
    169c:	e3 2f       	mov	r30, r19
    169e:	e4 1b       	sub	r30, r20
    pvPort++;
    tmp = *(u08*)pPORT;
    16a0:	f0 e0       	ldi	r31, 0x00	; 0
    16a2:	30 81       	ld	r19, Z

    if (Data & BitMskD) {
    16a4:	a7 2f       	mov	r26, r23
    16a6:	a6 23       	and	r26, r22
    16a8:	11 f0       	breq	.+4      	; 0x16ae <fOut_vPort+0x46>
      tmp |= BitMsk;
    16aa:	23 2b       	or	r18, r19
    16ac:	02 c0       	rjmp	.+4      	; 0x16b2 <fOut_vPort+0x4a>
    } else {
      tmp &= ~BitMsk;
    16ae:	20 95       	com	r18
    16b0:	23 23       	and	r18, r19
    }

    *(u08*)pPORT = tmp;
    16b2:	20 83       	st	Z, r18
    BitMskD <<= 1;
    16b4:	77 0f       	add	r23, r23
    BitCnt--;
    16b6:	51 50       	subi	r21, 0x01	; 1
    16b8:	e3 cf       	rjmp	.-58     	; 0x1680 <fOut_vPort+0x18>
  }
}
    16ba:	08 95       	ret

000016bc <fIn_vPort>:
 * #IDPIN - для доступа к регистру состояния входных линий порта
 * \return -
 *
 */
u08 fIn_vPort(u08 nPort, ID_Port_t Id_)
{
    16bc:	cf 93       	push	r28
    16be:	df 93       	push	r29
  u08 pPORT;
  volatile const __flash u08 *pvPort;
  u08 BitMsk;
  u08 BitCnt;
  u08 BitMskD;
  pvPort = vPorts[nPort];
    16c0:	e8 2f       	mov	r30, r24
    16c2:	f0 e0       	ldi	r31, 0x00	; 0
    16c4:	ee 0f       	add	r30, r30
    16c6:	ff 1f       	adc	r31, r31
    16c8:	e5 59       	subi	r30, 0x95	; 149
    16ca:	ff 4f       	sbci	r31, 0xFF	; 255
  BitCnt = *pvPort;
    16cc:	c0 81       	ld	r28, Z
    16ce:	d1 81       	ldd	r29, Z+1	; 0x01
    16d0:	fe 01       	movw	r30, r28
    16d2:	21 96       	adiw	r28, 0x01	; 1
    16d4:	95 91       	lpm	r25, Z+
  pvPort++;
  BitMskD = 1;
    16d6:	41 e0       	ldi	r20, 0x01	; 1
  Data = 0;
    16d8:	80 e0       	ldi	r24, 0x00	; 0

  while (BitCnt) {
    16da:	99 23       	and	r25, r25
    16dc:	91 f0       	breq	.+36     	; 0x1702 <fIn_vPort+0x46>
    BitMsk = vBits[*pvPort];
    16de:	fe 01       	movw	r30, r28
    16e0:	25 91       	lpm	r18, Z+
    pvPort++;
    pPORT = *pvPort - Id_;
    16e2:	a4 91       	lpm	r26, Z
    16e4:	22 96       	adiw	r28, 0x02	; 2
    16e6:	a6 1b       	sub	r26, r22
    pvPort++;
    tmp = *(u08*)pPORT;
    16e8:	b0 e0       	ldi	r27, 0x00	; 0
  pvPort++;
  BitMskD = 1;
  Data = 0;

  while (BitCnt) {
    BitMsk = vBits[*pvPort];
    16ea:	30 e0       	ldi	r19, 0x00	; 0
    16ec:	28 59       	subi	r18, 0x98	; 152
    16ee:	3e 4f       	sbci	r19, 0xFE	; 254
    pvPort++;
    pPORT = *pvPort - Id_;
    pvPort++;
    tmp = *(u08*)pPORT;

    if (tmp & BitMsk) {
    16f0:	5c 91       	ld	r21, X
    16f2:	f9 01       	movw	r30, r18
    16f4:	24 91       	lpm	r18, Z
    16f6:	25 23       	and	r18, r21
    16f8:	09 f0       	breq	.+2      	; 0x16fc <fIn_vPort+0x40>
      Data |= BitMskD;
    16fa:	84 2b       	or	r24, r20
    }

    BitMskD <<= 1;
    16fc:	44 0f       	add	r20, r20
    BitCnt--;
    16fe:	91 50       	subi	r25, 0x01	; 1
    1700:	ec cf       	rjmp	.-40     	; 0x16da <fIn_vPort+0x1e>
  }

  return Data;
}
    1702:	df 91       	pop	r29
    1704:	cf 91       	pop	r28
    1706:	08 95       	ret

00001708 <xputc>:
	ldi	r24, 13		;
	rcall	1f		;
	ldi	r24, 10		;/
1:
#endif
	push	ZH
    1708:	ff 93       	push	r31
	push	ZL
    170a:	ef 93       	push	r30
	lds	ZL, xfunc_out+0	;Pointer to the registered output function.
    170c:	e0 91 74 00 	lds	r30, 0x0074
	lds	ZH, xfunc_out+1	;/
    1710:	f0 91 75 00 	lds	r31, 0x0075
	icall
    1714:	09 95       	icall
	pop	ZL
    1716:	ef 91       	pop	r30
	pop	ZH
    1718:	ff 91       	pop	r31
	ret
    171a:	08 95       	ret

0000171c <xputs>:
;			);

.func xputs
.global xputs
xputs:
	_MOVW	ZH,ZL, r25,r24	; Z = pointer to rom string
    171c:	fc 01       	movw	r30, r24
1:	_LPMI	r24
    171e:	85 91       	lpm	r24, Z+
	cpi	r24, 0
    1720:	80 30       	cpi	r24, 0x00	; 0
	breq	2f
    1722:	11 f0       	breq	.+4      	; 0x1728 <xputs+0xc>
	rcall	xputc
    1724:	f1 df       	rcall	.-30     	; 0x1708 <xputc>
	rjmp	1b
    1726:	fb cf       	rjmp	.-10     	; 0x171e <xputs+0x2>
2:	ret
    1728:	08 95       	ret

0000172a <xitoa>:

.func xitoa
.global xitoa
xitoa:
				;r25:r22 = value, r20 = base, r18 = digits
	clr	r31		;r31 = stack level
    172a:	ff 27       	eor	r31, r31
	ldi	r30, ' '	;r30 = sign
    172c:	e0 e2       	ldi	r30, 0x20	; 32
	ldi	r19, ' '	;r19 = filler
    172e:	30 e2       	ldi	r19, 0x20	; 32
	sbrs	r20, 7		;When base indicates signd format and the value
    1730:	47 ff       	sbrs	r20, 7
	rjmp	0f		;is minus, add a '-'.
    1732:	0c c0       	rjmp	.+24     	; 0x174c <xitoa+0x22>
	neg	r20		;
    1734:	41 95       	neg	r20
	sbrs	r25, 7		;
    1736:	97 ff       	sbrs	r25, 7
	rjmp	0f		;
    1738:	09 c0       	rjmp	.+18     	; 0x174c <xitoa+0x22>
	ldi	r30, '-'	;
    173a:	ed e2       	ldi	r30, 0x2D	; 45
	com	r22		;
    173c:	60 95       	com	r22
	com	r23		;
    173e:	70 95       	com	r23
	com	r24		;
    1740:	80 95       	com	r24
	com	r25		;
    1742:	90 95       	com	r25
	adc	r22, r1		;
    1744:	61 1d       	adc	r22, r1
	adc	r23, r1		;
    1746:	71 1d       	adc	r23, r1
	adc	r24, r1		;
    1748:	81 1d       	adc	r24, r1
	adc	r25, r1		;/
    174a:	91 1d       	adc	r25, r1
0:	sbrs	r18, 7		;When digits indicates zero filled,
    174c:	27 ff       	sbrs	r18, 7
	rjmp	1f		;filler is '0'.
    174e:	02 c0       	rjmp	.+4      	; 0x1754 <xitoa+0x2a>
	neg	r18		;
    1750:	21 95       	neg	r18
	ldi	r19, '0'	;/
    1752:	30 e3       	ldi	r19, 0x30	; 48
				;----- string conversion loop
1:	ldi	r21, 32		;r26 = r25:r22 % r20
    1754:	50 e2       	ldi	r21, 0x20	; 32
	clr	r26		;r25:r22 /= r20
    1756:	aa 27       	eor	r26, r26
2:	lsl	r22		;
    1758:	66 0f       	add	r22, r22
	rol	r23		;
    175a:	77 1f       	adc	r23, r23
	rol	r24		;
    175c:	88 1f       	adc	r24, r24
	rol	r25		;
    175e:	99 1f       	adc	r25, r25
	rol	r26		;
    1760:	aa 1f       	adc	r26, r26
	cp	r26, r20	;
    1762:	a4 17       	cp	r26, r20
	brcs	3f		;
    1764:	10 f0       	brcs	.+4      	; 0x176a <xitoa+0x40>
	sub	r26, r20	;
    1766:	a4 1b       	sub	r26, r20
	inc	r22		;
    1768:	63 95       	inc	r22
3:	dec	r21		;
    176a:	5a 95       	dec	r21
	brne	2b		;/
    176c:	a9 f7       	brne	.-22     	; 0x1758 <xitoa+0x2e>
	cpi	r26, 10		;r26 is a numeral digit '0'-'F'
    176e:	aa 30       	cpi	r26, 0x0A	; 10
	brcs	4f		;
    1770:	08 f0       	brcs	.+2      	; 0x1774 <xitoa+0x4a>
	subi	r26, -7		;
    1772:	a9 5f       	subi	r26, 0xF9	; 249
4:	subi	r26, -'0'	;/
    1774:	a0 5d       	subi	r26, 0xD0	; 208
	push	r26		;Stack it
    1776:	af 93       	push	r26
	inc	r31		;/
    1778:	f3 95       	inc	r31
	cp	r22, r1		;Repeat until r25:r22 gets zero
    177a:	61 15       	cp	r22, r1
	cpc	r23, r1		;
    177c:	71 05       	cpc	r23, r1
	cpc	r24, r1		;
    177e:	81 05       	cpc	r24, r1
	cpc	r25, r1		;
    1780:	91 05       	cpc	r25, r1
	brne	1b		;/
    1782:	41 f7       	brne	.-48     	; 0x1754 <xitoa+0x2a>

	cpi	r30, '-'	;Minus sign if needed
    1784:	ed 32       	cpi	r30, 0x2D	; 45
	brne	5f		;
    1786:	11 f4       	brne	.+4      	; 0x178c <xitoa+0x62>
	push	r30		;
    1788:	ef 93       	push	r30
	inc	r31		;/
    178a:	f3 95       	inc	r31
5:	cp	r31, r18	;Filler
    178c:	f2 17       	cp	r31, r18
	brcc	6f		;
    178e:	18 f4       	brcc	.+6      	; 0x1796 <xitoa+0x6c>
	push	r19		;
    1790:	3f 93       	push	r19
	inc	r31		;
    1792:	f3 95       	inc	r31
	rjmp	5b		;/
    1794:	fb cf       	rjmp	.-10     	; 0x178c <xitoa+0x62>

6:	pop	r24		;Flush stacked digits and exit
    1796:	8f 91       	pop	r24
	rcall	xputc		;
    1798:	b7 df       	rcall	.-146    	; 0x1708 <xputc>
	dec	r31		;
    179a:	fa 95       	dec	r31
	brne	6b		;/
    179c:	e1 f7       	brne	.-8      	; 0x1796 <xitoa+0x6c>

	ret
    179e:	08 95       	ret

000017a0 <xvprintf>:

#if USE_XPRINTF

.func xvprintf
xvprintf:
	ld	ZL, Y+		;Z = pointer to format string
    17a0:	e9 91       	ld	r30, Y+
	ld	ZH, Y+		;/
    17a2:	f9 91       	ld	r31, Y+

0:	_LPMI	r24		;Get a format char
    17a4:	85 91       	lpm	r24, Z+
	cpi	r24, 0		;End of format string?
    17a6:	80 30       	cpi	r24, 0x00	; 0
	breq	90f		;/
    17a8:	21 f0       	breq	.+8      	; 0x17b2 <xvprintf+0x12>
	cpi	r24, '%'	;Is format?
    17aa:	85 32       	cpi	r24, 0x25	; 37
	breq	20f		;/
    17ac:	19 f0       	breq	.+6      	; 0x17b4 <xvprintf+0x14>
1:	rcall	xputc		;Put a normal character
    17ae:	ac df       	rcall	.-168    	; 0x1708 <xputc>
	rjmp	0b		;/
    17b0:	f9 cf       	rjmp	.-14     	; 0x17a4 <xvprintf+0x4>
90:	ret
    17b2:	08 95       	ret

20:	ldi	r18, 0		;r18: digits
    17b4:	20 e0       	ldi	r18, 0x00	; 0
	clt			;T: filler
    17b6:	e8 94       	clt
	_LPMI	r21		;Get flags
    17b8:	55 91       	lpm	r21, Z+
	cpi	r21, '%'	;Is a %?
    17ba:	55 32       	cpi	r21, 0x25	; 37
	breq	1b		;/
    17bc:	c1 f3       	breq	.-16     	; 0x17ae <xvprintf+0xe>
	cpi	r21, '0'	;Zero filled?
    17be:	50 33       	cpi	r21, 0x30	; 48
	brne	23f		;
    17c0:	11 f4       	brne	.+4      	; 0x17c6 <xvprintf+0x26>
	set			;/
    17c2:	68 94       	set
22:	_LPMI	r21		;Get width
    17c4:	55 91       	lpm	r21, Z+
23:	cpi	r21, '9'+1	;
    17c6:	5a 33       	cpi	r21, 0x3A	; 58
	brcc	24f		;
    17c8:	48 f4       	brcc	.+18     	; 0x17dc <xvprintf+0x3c>
	subi	r21, '0'	;
    17ca:	50 53       	subi	r21, 0x30	; 48
	brcs	90b		;
    17cc:	90 f3       	brcs	.-28     	; 0x17b2 <xvprintf+0x12>
	lsl	r18		;
    17ce:	22 0f       	add	r18, r18
	mov	r0, r18		;
    17d0:	02 2e       	mov	r0, r18
	lsl	r18		;
    17d2:	22 0f       	add	r18, r18
	lsl	r18		;
    17d4:	22 0f       	add	r18, r18
	add	r18, r0		;
    17d6:	20 0d       	add	r18, r0
	add	r18, r21	;
    17d8:	25 0f       	add	r18, r21
	rjmp	22b		;/
    17da:	f4 cf       	rjmp	.-24     	; 0x17c4 <xvprintf+0x24>

24:	brtc	25f		;get value (low word)
    17dc:	0e f4       	brtc	.+2      	; 0x17e0 <xvprintf+0x40>
	neg	r18		;
    17de:	21 95       	neg	r18
25:	ld	r24, Y+		;
    17e0:	89 91       	ld	r24, Y+
	ld	r25, Y+		;/
    17e2:	99 91       	ld	r25, Y+
	cpi	r21, 'c'	;Is type character?
    17e4:	53 36       	cpi	r21, 0x63	; 99
	breq	1b		;/
    17e6:	19 f3       	breq	.-58     	; 0x17ae <xvprintf+0xe>
	cpi	r21, 's'	;Is type RAM string?
    17e8:	53 37       	cpi	r21, 0x73	; 115
	breq	50f		;/
    17ea:	29 f1       	breq	.+74     	; 0x1836 <xvprintf+0x96>
	cpi	r21, 'S'	;Is type ROM string?
    17ec:	53 35       	cpi	r21, 0x53	; 83
	breq	60f		;/
    17ee:	59 f1       	breq	.+86     	; 0x1846 <xvprintf+0xa6>
	_MOVW	r23,r22,r25,r24	;r25:r22 = value
    17f0:	bc 01       	movw	r22, r24
	clr	r24		;
    17f2:	88 27       	eor	r24, r24
	clr	r25		;
    17f4:	99 27       	eor	r25, r25
	clt			;/
    17f6:	e8 94       	clt
	cpi	r21, 'l'	;Is long int?
    17f8:	5c 36       	cpi	r21, 0x6C	; 108
	brne	26f		;
    17fa:	21 f4       	brne	.+8      	; 0x1804 <xvprintf+0x64>
	ld	r24, Y+		;get value (high word)
    17fc:	89 91       	ld	r24, Y+
	ld	r25, Y+		;
    17fe:	99 91       	ld	r25, Y+
	set			;
    1800:	68 94       	set
	_LPMI	r21		;/
    1802:	55 91       	lpm	r21, Z+
26:	cpi	r21, 'd'	;Is type signed decimal?
    1804:	54 36       	cpi	r21, 0x64	; 100
	brne	27f		;/
    1806:	39 f4       	brne	.+14     	; 0x1816 <xvprintf+0x76>
	ldi	r20, -10	;
    1808:	46 ef       	ldi	r20, 0xF6	; 246
	brts	40f		;
    180a:	7e f0       	brts	.+30     	; 0x182a <xvprintf+0x8a>
	sbrs	r23, 7		;
    180c:	77 ff       	sbrs	r23, 7
	rjmp	40f		;
    180e:	0d c0       	rjmp	.+26     	; 0x182a <xvprintf+0x8a>
	ldi	r24, -1		;
    1810:	8f ef       	ldi	r24, 0xFF	; 255
	ldi	r25, -1		;
    1812:	9f ef       	ldi	r25, 0xFF	; 255
	rjmp	40f		;/
    1814:	0a c0       	rjmp	.+20     	; 0x182a <xvprintf+0x8a>
27:	cpi	r21, 'u'	;Is type unsigned decimal?
    1816:	55 37       	cpi	r21, 0x75	; 117
	ldi	r20, 10		;
    1818:	4a e0       	ldi	r20, 0x0A	; 10
	breq	40f		;/
    181a:	39 f0       	breq	.+14     	; 0x182a <xvprintf+0x8a>
	cpi	r21, 'X'	;Is type hexdecimal?
    181c:	58 35       	cpi	r21, 0x58	; 88
	ldi	r20, 16		;
    181e:	40 e1       	ldi	r20, 0x10	; 16
	breq	40f		;/
    1820:	21 f0       	breq	.+8      	; 0x182a <xvprintf+0x8a>
	cpi	r21, 'b'	;Is type binary?
    1822:	52 36       	cpi	r21, 0x62	; 98
	ldi	r20, 2		;
    1824:	42 e0       	ldi	r20, 0x02	; 2
	breq	40f		;/
    1826:	09 f0       	breq	.+2      	; 0x182a <xvprintf+0x8a>
	ret			;abort
    1828:	08 95       	ret
40:	push	ZH		;Output the value
    182a:	ff 93       	push	r31
	push	ZL		;
    182c:	ef 93       	push	r30
	rcall	xitoa		;
    182e:	7d df       	rcall	.-262    	; 0x172a <xitoa>
42:	pop	ZL		;
    1830:	ef 91       	pop	r30
	pop	ZH		;
    1832:	ff 91       	pop	r31
	rjmp	0b		;/
    1834:	b7 cf       	rjmp	.-146    	; 0x17a4 <xvprintf+0x4>

50:	push	ZH		;Put a string on the RAM
    1836:	ff 93       	push	r31
	push	ZL
    1838:	ef 93       	push	r30
	_MOVW	ZH,ZL, r25,r24
    183a:	fc 01       	movw	r30, r24
51:	ld	r24, Z+
    183c:	81 91       	ld	r24, Z+
	cpi	r24, 0
    183e:	80 30       	cpi	r24, 0x00	; 0
	breq	42b
    1840:	b9 f3       	breq	.-18     	; 0x1830 <xvprintf+0x90>
	rcall	xputc
    1842:	62 df       	rcall	.-316    	; 0x1708 <xputc>
	rjmp	51b
    1844:	fb cf       	rjmp	.-10     	; 0x183c <xvprintf+0x9c>

60:	push	ZH		;Put a string on the ROM
    1846:	ff 93       	push	r31
	push	ZL
    1848:	ef 93       	push	r30
	rcall	xputs
    184a:	68 df       	rcall	.-304    	; 0x171c <xputs>
	rjmp	42b
    184c:	f1 cf       	rjmp	.-30     	; 0x1830 <xvprintf+0x90>

0000184e <xprintf>:


.func xprintf
.global xprintf
xprintf:
	push	YH
    184e:	df 93       	push	r29
	push	YL
    1850:	cf 93       	push	r28
	in	YL, _SFR_IO_ADDR(SPL)
    1852:	cd b7       	in	r28, 0x3d	; 61
#ifdef SPH
	in	YH, _SFR_IO_ADDR(SPH)
    1854:	de b7       	in	r29, 0x3e	; 62
#else
	clr	YH
#endif
	adiw	YL, 5		;Y = pointer to arguments
    1856:	25 96       	adiw	r28, 0x05	; 5
	rcall	xvprintf
    1858:	a3 df       	rcall	.-186    	; 0x17a0 <xvprintf>
	pop	YL
    185a:	cf 91       	pop	r28
	pop	YH
    185c:	df 91       	pop	r29
	ret
    185e:	08 95       	ret

00001860 <putram>:

#if USE_XSPRINTF

.func xsprintf
putram:
	_MOVW	ZH,ZL, r15,r14
    1860:	f7 01       	movw	r30, r14
	st	Z+, r24
    1862:	81 93       	st	Z+, r24
	_MOVW	r15,r14, ZH,ZL
    1864:	7f 01       	movw	r14, r30
	ret
    1866:	08 95       	ret

00001868 <xsprintf>:
.global xsprintf
xsprintf:
	push	YH
    1868:	df 93       	push	r29
	push	YL
    186a:	cf 93       	push	r28
	in	YL, _SFR_IO_ADDR(SPL)
    186c:	cd b7       	in	r28, 0x3d	; 61
#ifdef SPH
	in	YH, _SFR_IO_ADDR(SPH)
    186e:	de b7       	in	r29, 0x3e	; 62
#else
	clr	YH
#endif
	adiw	YL, 5		;Y = pointer to arguments
    1870:	25 96       	adiw	r28, 0x05	; 5
	lds	ZL, xfunc_out+0	;Save registered output function
    1872:	e0 91 74 00 	lds	r30, 0x0074
	lds	ZH, xfunc_out+1	;
    1876:	f0 91 75 00 	lds	r31, 0x0075
	push	ZL		;
    187a:	ef 93       	push	r30
	push	ZH		;/
    187c:	ff 93       	push	r31
	ldi	ZL, lo8(pm(putram));Set local output function
    187e:	e0 e3       	ldi	r30, 0x30	; 48
	ldi	ZH, hi8(pm(putram));
    1880:	fc e0       	ldi	r31, 0x0C	; 12
	sts	xfunc_out+0, ZL	;
    1882:	e0 93 74 00 	sts	0x0074, r30
	sts	xfunc_out+1, ZH	;/
    1886:	f0 93 75 00 	sts	0x0075, r31
	push	r15		;Initialize pointer to string buffer
    188a:	ff 92       	push	r15
	push	r14		;
    188c:	ef 92       	push	r14
	ld	r14, Y+		;
    188e:	e9 90       	ld	r14, Y+
	ld	r15, Y+		;/
    1890:	f9 90       	ld	r15, Y+
	rcall	xvprintf
    1892:	86 df       	rcall	.-244    	; 0x17a0 <xvprintf>
	_MOVW	ZH,ZL, r15,r14	;Terminate string
    1894:	f7 01       	movw	r30, r14
	st	Z, r1		;
    1896:	10 82       	st	Z, r1
	pop	r14		;
    1898:	ef 90       	pop	r14
	pop	r15		;/
    189a:	ff 90       	pop	r15
	pop	ZH		;Restore registered output function
    189c:	ff 91       	pop	r31
	pop	ZL		;
    189e:	ef 91       	pop	r30
	sts	xfunc_out+0, ZL	;
    18a0:	e0 93 74 00 	sts	0x0074, r30
	sts	xfunc_out+1, ZH	;/
    18a4:	f0 93 75 00 	sts	0x0075, r31
	pop	YL
    18a8:	cf 91       	pop	r28
	pop	YH
    18aa:	df 91       	pop	r29
	ret
    18ac:	08 95       	ret

000018ae <fProgramm>:
}



void fProgramm(void)
{
    18ae:	08 95       	ret

000018b0 <fIdle>:
}


void fIdle(void)
{
  mSetTimerTask(fIdle, 10 _ms);
    18b0:	61 e0       	ldi	r22, 0x01	; 1
    18b2:	70 e0       	ldi	r23, 0x00	; 0
    18b4:	80 e0       	ldi	r24, 0x00	; 0
    18b6:	0e 94 45 0e 	call	0x1c8a	; 0x1c8a <krSetTimer>
  v_KBD.wt = 1;
    18ba:	81 e0       	ldi	r24, 0x01	; 1
    18bc:	80 93 a3 01 	sts	0x01A3, r24
    18c0:	08 95       	ret

000018c2 <fFlash>:
#endif
}

void fFlash(void)
{
  vFlash++;
    18c2:	80 91 cb 01 	lds	r24, 0x01CB
    18c6:	8f 5f       	subi	r24, 0xFF	; 255
    18c8:	80 93 cb 01 	sts	0x01CB, r24
  mSetTimerTask(fFlash, 300 _ms);
    18cc:	6e e1       	ldi	r22, 0x1E	; 30
    18ce:	70 e0       	ldi	r23, 0x00	; 0
    18d0:	82 e0       	ldi	r24, 0x02	; 2
    18d2:	0c 94 45 0e 	jmp	0x1c8a	; 0x1c8a <krSetTimer>

000018d6 <__vector_default>:


ISR(BADISR_vect, ISR_NAKED)
{
  // user code here
  reti();
    18d6:	18 95       	reti

000018d8 <fCRC16>:




u16 fCRC16(u08 * pBuff, u16 nByte)
{
    18d8:	fc 01       	movw	r30, r24
    18da:	68 0f       	add	r22, r24
    18dc:	79 1f       	adc	r23, r25
  u16 tmpCRC16;
  tmpCRC16 = 0xffff;
    18de:	8f ef       	ldi	r24, 0xFF	; 255
    18e0:	9f ef       	ldi	r25, 0xFF	; 255

  while (nByte--) {
    18e2:	e6 17       	cp	r30, r22
    18e4:	f7 07       	cpc	r31, r23
    18e6:	c9 f0       	breq	.+50     	; 0x191a <fCRC16+0x42>
    tmpCRC16 = _crc16_update(tmpCRC16, *pBuff++);
    18e8:	21 91       	ld	r18, Z+
_crc16_update(uint16_t __crc, uint8_t __data)
{
	uint8_t __tmp;
	uint16_t __ret;

	__asm__ __volatile__ (
    18ea:	82 27       	eor	r24, r18
    18ec:	28 2f       	mov	r18, r24
    18ee:	22 95       	swap	r18
    18f0:	28 27       	eor	r18, r24
    18f2:	02 2e       	mov	r0, r18
    18f4:	26 95       	lsr	r18
    18f6:	26 95       	lsr	r18
    18f8:	20 25       	eor	r18, r0
    18fa:	02 2e       	mov	r0, r18
    18fc:	26 95       	lsr	r18
    18fe:	20 25       	eor	r18, r0
    1900:	27 70       	andi	r18, 0x07	; 7
    1902:	08 2e       	mov	r0, r24
    1904:	89 2f       	mov	r24, r25
    1906:	26 95       	lsr	r18
    1908:	07 94       	ror	r0
    190a:	27 95       	ror	r18
    190c:	90 2d       	mov	r25, r0
    190e:	82 27       	eor	r24, r18
    1910:	06 94       	lsr	r0
    1912:	27 95       	ror	r18
    1914:	90 25       	eor	r25, r0
    1916:	82 27       	eor	r24, r18
    1918:	e4 cf       	rjmp	.-56     	; 0x18e2 <fCRC16+0xa>
  }

  return tmpCRC16;
}
    191a:	08 95       	ret

0000191c <fBuzInit>:


void fBuzInit(void)
{
  TCCR2 = 0 << COM21 | 1 << COM20 | mGetT2_Div(4000, 8, 1);
    191c:	82 e1       	ldi	r24, 0x12	; 18
    191e:	85 bd       	out	0x25, r24	; 37
  mPinIn(BUZ);
    1920:	bb 98       	cbi	0x17, 3	; 23
    1922:	08 95       	ret

00001924 <fBuzOnTime>:
}
void fBuzOnTime(const u16 t_on)
{
  volatile Flg_t *pFlg = (Flg_t*)(&gFlagsL);  // Инициализация указателя на структуру флагов /
  pFlg->Buzer = 1;
    1924:	02 9a       	sbi	0x00, 2	; 0
  mPinOut(BUZ);
    1926:	bb 9a       	sbi	0x17, 3	; 23
  mSetTimerTask(fBuzOff, t_on);
    1928:	bc 01       	movw	r22, r24
    192a:	85 e0       	ldi	r24, 0x05	; 5
    192c:	0c 94 45 0e 	jmp	0x1c8a	; 0x1c8a <krSetTimer>

00001930 <fBuzOn>:
}

void fBuzOn(void)
{
  volatile Flg_t *pFlg = (Flg_t*)(&gFlagsL);  // Инициализация указателя на структуру флагов /
  pFlg->Buzer = 1;
    1930:	02 9a       	sbi	0x00, 2	; 0
  mPinOut(BUZ);
    1932:	bb 9a       	sbi	0x17, 3	; 23
    1934:	08 95       	ret

00001936 <fBuzOff>:
}

void fBuzOff(void)
{
  volatile Flg_t *pFlg = (Flg_t*)(&gFlagsL);  // Инициализация указателя на структуру флагов /
  pFlg->Buzer = 0;
    1936:	02 98       	cbi	0x00, 2	; 0
  mPinIn(BUZ);
    1938:	bb 98       	cbi	0x17, 3	; 23
    193a:	08 95       	ret

0000193c <fBuzer>:

inline void fBuzer(void)
{
  volatile Flg_t *pFlg = (Flg_t*)(&gFlagsL);  // Инициализация указателя на структуру флагов /

  if (pFlg->Buzer) {
    193c:	02 9b       	sbis	0x00, 2	; 0
    193e:	02 c0       	rjmp	.+4      	; 0x1944 <fBuzer+0x8>
    mPinOut(BUZ);
    1940:	bb 9a       	sbi	0x17, 3	; 23
    1942:	08 95       	ret
  } else {
    mPinIn(BUZ);
    1944:	bb 98       	cbi	0x17, 3	; 23
    1946:	08 95       	ret

00001948 <fASCII2_LED>:
  xsprintf((char*)szParamVal_Buf, fmt_3u, val);
  fASCII2_LED(szParamVal_Buf, 3);
}

void fASCII2_LED(u08 *pBuf, u08 Size)
{
    1948:	ef 92       	push	r14
    194a:	ff 92       	push	r15
    194c:	1f 93       	push	r17
    194e:	cf 93       	push	r28
    1950:	df 93       	push	r29
    1952:	1f 92       	push	r1
    1954:	cd b7       	in	r28, 0x3d	; 61
    1956:	de b7       	in	r29, 0x3e	; 62
    1958:	18 2f       	mov	r17, r24
  u08 cnt = 0;
  u08 tmp;

  while (cnt < Size) {
    195a:	e8 2e       	mov	r14, r24
    195c:	f9 2e       	mov	r15, r25
    195e:	8e 2d       	mov	r24, r14
    1960:	81 1b       	sub	r24, r17
    1962:	86 17       	cp	r24, r22
    1964:	58 f4       	brcc	.+22     	; 0x197c <fASCII2_LED+0x34>
    tmp = fB27S(*pBuf - '0');
    1966:	f7 01       	movw	r30, r14
    1968:	80 81       	ld	r24, Z
    196a:	80 53       	subi	r24, 0x30	; 48
    196c:	69 83       	std	Y+1, r22	; 0x01
    196e:	0e 94 48 09 	call	0x1290	; 0x1290 <fB27S>
    *pBuf = tmp;
    1972:	f7 01       	movw	r30, r14
    1974:	81 93       	st	Z+, r24
    1976:	7f 01       	movw	r14, r30
    1978:	69 81       	ldd	r22, Y+1	; 0x01
    197a:	f1 cf       	rjmp	.-30     	; 0x195e <fASCII2_LED+0x16>
    cnt++;
    pBuf++;
  }
}
    197c:	0f 90       	pop	r0
    197e:	df 91       	pop	r29
    1980:	cf 91       	pop	r28
    1982:	1f 91       	pop	r17
    1984:	ff 90       	pop	r15
    1986:	ef 90       	pop	r14
    1988:	08 95       	ret

0000198a <fPrint2LED>:
}


void fPrint2LED(u16 val)
{
  xsprintf((char*)szParamVal_Buf, fmt_3u, val);
    198a:	9f 93       	push	r25
    198c:	8f 93       	push	r24
    198e:	80 e7       	ldi	r24, 0x70	; 112
    1990:	91 e0       	ldi	r25, 0x01	; 1
    1992:	9f 93       	push	r25
    1994:	8f 93       	push	r24
    1996:	8c ec       	ldi	r24, 0xCC	; 204
    1998:	91 e0       	ldi	r25, 0x01	; 1
    199a:	9f 93       	push	r25
    199c:	8f 93       	push	r24
    199e:	0e 94 34 0c 	call	0x1868	; 0x1868 <xsprintf>
  fASCII2_LED(szParamVal_Buf, 3);
    19a2:	0f 90       	pop	r0
    19a4:	0f 90       	pop	r0
    19a6:	0f 90       	pop	r0
    19a8:	0f 90       	pop	r0
    19aa:	0f 90       	pop	r0
    19ac:	0f 90       	pop	r0
    19ae:	63 e0       	ldi	r22, 0x03	; 3
    19b0:	8c ec       	ldi	r24, 0xCC	; 204
    19b2:	91 e0       	ldi	r25, 0x01	; 1
    19b4:	0c 94 a4 0c 	jmp	0x1948	; 0x1948 <fASCII2_LED>

000019b8 <fPrintParams>:



void fPrintParams(u16 Prm)
{
  fPrint2LED(Prm);
    19b8:	0c 94 c5 0c 	jmp	0x198a	; 0x198a <fPrint2LED>

000019bc <fPrintState>:
}


void fPrintState(void)
{
  switch (vState) {
    19bc:	80 91 97 00 	lds	r24, 0x0097
    19c0:	90 91 98 00 	lds	r25, 0x0098
    19c4:	87 30       	cpi	r24, 0x07	; 7
    19c6:	91 05       	cpc	r25, r1
    19c8:	29 f1       	breq	.+74     	; 0x1a14 <fPrintState+0x58>
    19ca:	30 f4       	brcc	.+12     	; 0x19d8 <fPrintState+0x1c>
    19cc:	82 30       	cpi	r24, 0x02	; 2
    19ce:	91 05       	cpc	r25, r1
    19d0:	99 f0       	breq	.+38     	; 0x19f8 <fPrintState+0x3c>
    19d2:	03 97       	sbiw	r24, 0x03	; 3
    19d4:	f9 f0       	breq	.+62     	; 0x1a14 <fPrintState+0x58>
    19d6:	41 c0       	rjmp	.+130    	; 0x1a5a <fPrintState+0x9e>
    19d8:	8a 30       	cpi	r24, 0x0A	; 10
    19da:	91 05       	cpc	r25, r1
    19dc:	69 f0       	breq	.+26     	; 0x19f8 <fPrintState+0x3c>
    19de:	e8 f1       	brcs	.+122    	; 0x1a5a <fPrintState+0x9e>
    19e0:	0d 97       	sbiw	r24, 0x0d	; 13
    19e2:	03 97       	sbiw	r24, 0x03	; 3
    19e4:	d0 f5       	brcc	.+116    	; 0x1a5a <fPrintState+0x9e>
    case FAULT_SCREW:
    case FAULT_TS2:
    case FAULT: {
        krMemCopyF2R(pszError, szParamVal_Buf, 3);
    19e6:	43 e0       	ldi	r20, 0x03	; 3
    19e8:	6c ec       	ldi	r22, 0xCC	; 204
    19ea:	71 e0       	ldi	r23, 0x01	; 1
    19ec:	80 91 a4 00 	lds	r24, 0x00A4
    19f0:	90 91 a5 00 	lds	r25, 0x00A5
    19f4:	0c 94 c0 0e 	jmp	0x1d80	; 0x1d80 <krMemCopyF2R>

    case IGN_UNLOAD:
    case BRN_UNLOAD: {
        u08 LeftUnload;

        if (v_N_Unload >= v_CntUnld) {
    19f8:	80 91 ca 01 	lds	r24, 0x01CA
    19fc:	90 91 a6 00 	lds	r25, 0x00A6
    1a00:	89 17       	cp	r24, r25
    1a02:	10 f0       	brcs	.+4      	; 0x1a08 <fPrintState+0x4c>
          LeftUnload = v_N_Unload - v_CntUnld;
    1a04:	89 1b       	sub	r24, r25
    1a06:	01 c0       	rjmp	.+2      	; 0x1a0a <fPrintState+0x4e>
        } else {
          LeftUnload = 0;
    1a08:	80 e0       	ldi	r24, 0x00	; 0



void fPrintParams(u16 Prm)
{
  fPrint2LED(Prm);
    1a0a:	90 e0       	ldi	r25, 0x00	; 0
    1a0c:	0e 94 c5 0c 	call	0x198a	; 0x198a <fPrint2LED>
        } else {
          LeftUnload = 0;
        }

        fPrintParams(LeftUnload);
        szParamVal_Buf[0] = S_n;
    1a10:	84 e5       	ldi	r24, 0x54	; 84
    1a12:	20 c0       	rjmp	.+64     	; 0x1a54 <fPrintState+0x98>
    case IGN_TEN:
    case IGNITION: {
        u16 tmpTime;
        u08 tmpMin;
        u08 tmpSec;
        tmpTime = krGetTimer(TimerTaskID);
    1a14:	80 91 9a 00 	lds	r24, 0x009A
    1a18:	0e 94 84 0e 	call	0x1d08	; 0x1d08 <krGetTimer>

        if (tmpTime) {
    1a1c:	00 97       	sbiw	r24, 0x00	; 0
    1a1e:	e9 f0       	breq	.+58     	; 0x1a5a <fPrintState+0x9e>
          tmpTime /= FreqOS;
    1a20:	64 e6       	ldi	r22, 0x64	; 100
    1a22:	70 e0       	ldi	r23, 0x00	; 0
    1a24:	0e 94 0f 10 	call	0x201e	; 0x201e <__udivmodhi4>
    1a28:	cb 01       	movw	r24, r22
          tmpMin  = tmpTime / 60;
    1a2a:	6c e3       	ldi	r22, 0x3C	; 60
    1a2c:	70 e0       	ldi	r23, 0x00	; 0
    1a2e:	0e 94 0f 10 	call	0x201e	; 0x201e <__udivmodhi4>
          tmpSec = tmpTime % 60;
          fPrintParams(tmpMin * 100 + tmpSec);
    1a32:	44 e6       	ldi	r20, 0x64	; 100
    1a34:	46 9f       	mul	r20, r22
    1a36:	90 01       	movw	r18, r0
    1a38:	47 9f       	mul	r20, r23
    1a3a:	30 0d       	add	r19, r0
    1a3c:	11 24       	eor	r1, r1



void fPrintParams(u16 Prm)
{
  fPrint2LED(Prm);
    1a3e:	82 0f       	add	r24, r18
    1a40:	93 1f       	adc	r25, r19
    1a42:	0e 94 c5 0c 	call	0x198a	; 0x198a <fPrint2LED>
          tmpTime /= FreqOS;
          tmpMin  = tmpTime / 60;
          tmpSec = tmpTime % 60;
          fPrintParams(tmpMin * 100 + tmpSec);

          if ((vFlash & 0b001)) {
    1a46:	80 91 cb 01 	lds	r24, 0x01CB
    1a4a:	80 ff       	sbrs	r24, 0
    1a4c:	0e c0       	rjmp	.+28     	; 0x1a6a <fPrintState+0xae>
            szParamVal_Buf[0] ^= S_Dot;
    1a4e:	80 91 cc 01 	lds	r24, 0x01CC
    1a52:	80 58       	subi	r24, 0x80	; 128
    1a54:	80 93 cc 01 	sts	0x01CC, r24
    1a58:	08 95       	ret

        break;
      }

    default: {
        fPrintParams(v_Param.TS1 - 273);
    1a5a:	80 91 d8 00 	lds	r24, 0x00D8
    1a5e:	90 91 d9 00 	lds	r25, 0x00D9



void fPrintParams(u16 Prm)
{
  fPrint2LED(Prm);
    1a62:	81 51       	subi	r24, 0x11	; 17
    1a64:	91 40       	sbci	r25, 0x01	; 1
    1a66:	0c 94 c5 0c 	jmp	0x198a	; 0x198a <fPrint2LED>
    1a6a:	08 95       	ret

00001a6c <fMenu>:

//const char __flash fmt_3d[] = "%03d";
const char __flash fmt_3u[] = "%03u";

void fMenu(void)
{
    1a6c:	cf 93       	push	r28
  mSetTimerTask(fMenu, 71 _ms);
    1a6e:	67 e0       	ldi	r22, 0x07	; 7
    1a70:	70 e0       	ldi	r23, 0x00	; 0
    1a72:	83 e0       	ldi	r24, 0x03	; 3
    1a74:	0e 94 45 0e 	call	0x1c8a	; 0x1c8a <krSetTimer>
  fControl();
    1a78:	0e 94 5d 05 	call	0xaba	; 0xaba <fControl>
  //  fStrScroll_Run(1, &szMenu_SStr, &v_LCDBuf[0], 10, 0);
  //  fStrScroll_Run(1, "01234567890", &v_LCDBuf[0], 9, 0);
  eKBD_MSG tmpMSG;
  tmpMSG = fKBD_GetKey();
    1a7c:	0e 94 ba 08 	call	0x1174	; 0x1174 <fKBD_GetKey>
    1a80:	c8 2f       	mov	r28, r24

  if (tmpMSG != KBD_NO) {
    1a82:	88 23       	and	r24, r24
    1a84:	09 f4       	brne	.+2      	; 0x1a88 <fMenu+0x1c>
    1a86:	60 c0       	rjmp	.+192    	; 0x1b48 <fMenu+0xdc>
    mSetTimerTask(fMenuInit, vSets_com.TimeOut * FreqOS);
    1a88:	80 91 f9 01 	lds	r24, 0x01F9
    1a8c:	90 91 fa 01 	lds	r25, 0x01FA
    1a90:	24 e6       	ldi	r18, 0x64	; 100
    1a92:	28 9f       	mul	r18, r24
    1a94:	b0 01       	movw	r22, r0
    1a96:	29 9f       	mul	r18, r25
    1a98:	70 0d       	add	r23, r0
    1a9a:	11 24       	eor	r1, r1
    1a9c:	8f e0       	ldi	r24, 0x0F	; 15
    1a9e:	0e 94 45 0e 	call	0x1c8a	; 0x1c8a <krSetTimer>

    switch (vState) {
    1aa2:	80 91 97 00 	lds	r24, 0x0097
    1aa6:	90 91 98 00 	lds	r25, 0x0098
    1aaa:	81 31       	cpi	r24, 0x11	; 17
    1aac:	91 05       	cpc	r25, r1
    1aae:	48 f4       	brcc	.+18     	; 0x1ac2 <fMenu+0x56>
    1ab0:	8d 30       	cpi	r24, 0x0D	; 13
    1ab2:	91 05       	cpc	r25, r1
    1ab4:	a8 f4       	brcc	.+42     	; 0x1ae0 <fMenu+0x74>
    1ab6:	83 30       	cpi	r24, 0x03	; 3
    1ab8:	91 05       	cpc	r25, r1
    1aba:	49 f0       	breq	.+18     	; 0x1ace <fMenu+0x62>
    1abc:	07 97       	sbiw	r24, 0x07	; 7
    1abe:	39 f0       	breq	.+14     	; 0x1ace <fMenu+0x62>
    1ac0:	13 c0       	rjmp	.+38     	; 0x1ae8 <fMenu+0x7c>
    1ac2:	44 97       	sbiw	r24, 0x14	; 20
    1ac4:	89 f4       	brne	.+34     	; 0x1ae8 <fMenu+0x7c>
          return;
          break;
        }

      case AUTORUN: {
          mClrTimer(fRunStop);
    1ac6:	81 e0       	ldi	r24, 0x01	; 1
    1ac8:	0e 94 98 0e 	call	0x1d30	; 0x1d30 <krClrTimer>
    1acc:	09 c0       	rjmp	.+18     	; 0x1ae0 <fMenu+0x74>
          break;
        }

      case IGNITION:
      case IGN_TEN: {
          vState = vStateNext;
    1ace:	80 91 95 00 	lds	r24, 0x0095
    1ad2:	90 91 96 00 	lds	r25, 0x0096
    1ad6:	90 93 98 00 	sts	0x0098, r25
    1ada:	80 93 97 00 	sts	0x0097, r24
          return;
    1ade:	6b c0       	rjmp	.+214    	; 0x1bb6 <fMenu+0x14a>
          break;
        }

      case AUTORUN: {
          mClrTimer(fRunStop);
          vState = STOP;
    1ae0:	10 92 98 00 	sts	0x0098, r1
    1ae4:	10 92 97 00 	sts	0x0097, r1
      default: {
        }
        break;
    }

    if (v_Menu.vMode == IDLE) {
    1ae8:	80 91 b7 01 	lds	r24, 0x01B7
    1aec:	90 91 b8 01 	lds	r25, 0x01B8
    1af0:	89 2b       	or	r24, r25
    1af2:	39 f4       	brne	.+14     	; 0x1b02 <fMenu+0x96>
      v_Menu.vMode = NORMAL;
    1af4:	81 e0       	ldi	r24, 0x01	; 1
    1af6:	90 e0       	ldi	r25, 0x00	; 0
    1af8:	90 93 b8 01 	sts	0x01B8, r25
    1afc:	80 93 b7 01 	sts	0x01B7, r24
    1b00:	23 c0       	rjmp	.+70     	; 0x1b48 <fMenu+0xdc>
    } else {
      switch (tmpMSG) {
    1b02:	c2 30       	cpi	r28, 0x02	; 2
    1b04:	a1 f0       	breq	.+40     	; 0x1b2e <fMenu+0xc2>
    1b06:	18 f4       	brcc	.+6      	; 0x1b0e <fMenu+0xa2>
    1b08:	c1 30       	cpi	r28, 0x01	; 1
    1b0a:	41 f0       	breq	.+16     	; 0x1b1c <fMenu+0xb0>
    1b0c:	1d c0       	rjmp	.+58     	; 0x1b48 <fMenu+0xdc>
    1b0e:	c3 30       	cpi	r28, 0x03	; 3
    1b10:	b9 f0       	breq	.+46     	; 0x1b40 <fMenu+0xd4>
    1b12:	c4 30       	cpi	r28, 0x04	; 4
    1b14:	c9 f4       	brne	.+50     	; 0x1b48 <fMenu+0xdc>

            break;
          }

        case KBD_SWDN: {
            fMenuSendMsg(MSG_SWDN);
    1b16:	85 e0       	ldi	r24, 0x05	; 5
    1b18:	90 e0       	ldi	r25, 0x00	; 0
    1b1a:	14 c0       	rjmp	.+40     	; 0x1b44 <fMenu+0xd8>
    if (v_Menu.vMode == IDLE) {
      v_Menu.vMode = NORMAL;
    } else {
      switch (tmpMSG) {
        case KBD_UP: {
            if (vState == STOP) fMenuSendMsg(MSG_NEXT);
    1b1c:	80 91 97 00 	lds	r24, 0x0097
    1b20:	90 91 98 00 	lds	r25, 0x0098
    1b24:	89 2b       	or	r24, r25
    1b26:	81 f4       	brne	.+32     	; 0x1b48 <fMenu+0xdc>
    1b28:	83 e0       	ldi	r24, 0x03	; 3
    1b2a:	90 e0       	ldi	r25, 0x00	; 0
    1b2c:	0b c0       	rjmp	.+22     	; 0x1b44 <fMenu+0xd8>

            break;
          }

        case KBD_DN: {
            if (vState == STOP) fMenuSendMsg(MSG_PREV);
    1b2e:	80 91 97 00 	lds	r24, 0x0097
    1b32:	90 91 98 00 	lds	r25, 0x0098
    1b36:	89 2b       	or	r24, r25
    1b38:	39 f4       	brne	.+14     	; 0x1b48 <fMenu+0xdc>
    1b3a:	84 e0       	ldi	r24, 0x04	; 4
    1b3c:	90 e0       	ldi	r25, 0x00	; 0
    1b3e:	02 c0       	rjmp	.+4      	; 0x1b44 <fMenu+0xd8>
            fMenuSendMsg(MSG_SWDN);
            break;
          }

        case KBD_SWUP: {
            fMenuSendMsg(MSG_SWUP);
    1b40:	86 e0       	ldi	r24, 0x06	; 6
    1b42:	90 e0       	ldi	r25, 0x00	; 0
    1b44:	0e 94 4e 09 	call	0x129c	; 0x129c <fMenuSendMsg>
          }
      }/* switch (tmpMSG) */
    }
  }

  krCallTaskID(v_Menu.TaskID);
    1b48:	80 91 b6 01 	lds	r24, 0x01B6
    1b4c:	0e 94 20 0e 	call	0x1c40	; 0x1c40 <krCallTaskID>

  switch (v_Menu.vMode) {
    1b50:	80 91 b7 01 	lds	r24, 0x01B7
    1b54:	90 91 b8 01 	lds	r25, 0x01B8
    1b58:	81 30       	cpi	r24, 0x01	; 1
    1b5a:	91 05       	cpc	r25, r1
    1b5c:	39 f0       	breq	.+14     	; 0x1b6c <fMenu+0x100>
    1b5e:	18 f0       	brcs	.+6      	; 0x1b66 <fMenu+0xfa>
    1b60:	02 97       	sbiw	r24, 0x02	; 2
    1b62:	79 f0       	breq	.+30     	; 0x1b82 <fMenu+0x116>
    1b64:	1a c0       	rjmp	.+52     	; 0x1b9a <fMenu+0x12e>
    case IDLE: {
        fPrintState();
    1b66:	0e 94 de 0c 	call	0x19bc	; 0x19bc <fPrintState>
    1b6a:	0b c0       	rjmp	.+22     	; 0x1b82 <fMenu+0x116>
        memcpy(vDinam, szParamVal_Buf, 3);
        break;
      }

    case NORMAL: {
        if (vFlash & 0b01) {
    1b6c:	80 91 cb 01 	lds	r24, 0x01CB
    1b70:	80 ff       	sbrs	r24, 0
    1b72:	07 c0       	rjmp	.+14     	; 0x1b82 <fMenu+0x116>
          memcpy(vDinam, szParamName_Buf, 3);
    1b74:	80 91 d4 01 	lds	r24, 0x01D4
    1b78:	90 91 d5 01 	lds	r25, 0x01D5
    1b7c:	a0 91 d6 01 	lds	r26, 0x01D6
    1b80:	06 c0       	rjmp	.+12     	; 0x1b8e <fMenu+0x122>

        break;
      }

    case EDIT: {
        memcpy(vDinam, szParamVal_Buf, 3);
    1b82:	80 91 cc 01 	lds	r24, 0x01CC
    1b86:	90 91 cd 01 	lds	r25, 0x01CD
    1b8a:	a0 91 ce 01 	lds	r26, 0x01CE
    1b8e:	80 93 66 00 	sts	0x0066, r24
    1b92:	90 93 67 00 	sts	0x0067, r25
    1b96:	a0 93 68 00 	sts	0x0068, r26
      }
  }

  volatile Flg_t *pFlg = (Flg_t*)(&gFlagsL); /* Инициализация указателя на структуру флагов */

  if (pFlg->FuelOK == 0) {
    1b9a:	00 99       	sbic	0x00, 0	; 0
    1b9c:	05 c0       	rjmp	.+10     	; 0x1ba8 <fMenu+0x13c>
    vDinam[2] |= S_Dot;
    1b9e:	80 91 68 00 	lds	r24, 0x0068
    1ba2:	80 68       	ori	r24, 0x80	; 128
    1ba4:	80 93 68 00 	sts	0x0068, r24
  }

  if (pFlg->Screw == 0) {
    1ba8:	03 99       	sbic	0x00, 3	; 0
    1baa:	05 c0       	rjmp	.+10     	; 0x1bb6 <fMenu+0x14a>
    vDinam[0] |= S_Dot;
    1bac:	80 91 66 00 	lds	r24, 0x0066
    1bb0:	80 68       	ori	r24, 0x80	; 128
    1bb2:	80 93 66 00 	sts	0x0066, r24
  }
}
    1bb6:	cf 91       	pop	r28
    1bb8:	08 95       	ret

00001bba <krClearTaskQueue>:
  //krMemFill(TaskQueue,0xff,TASKQUEUESIZE);
  u08 indx;

  //  for(indx=0; indx!=TASKQUEUESIZE; indx++)
  for (indx = TASKQUEUESIZE - 1; indx != MAX_TASK; indx--) {
    TaskQueue[indx] = MAX_TASK;
    1bba:	ec e9       	ldi	r30, 0x9C	; 156
    1bbc:	f0 e0       	ldi	r31, 0x00	; 0
    1bbe:	8f ef       	ldi	r24, 0xFF	; 255
    1bc0:	87 83       	std	Z+7, r24	; 0x07
    1bc2:	86 83       	std	Z+6, r24	; 0x06
    1bc4:	85 83       	std	Z+5, r24	; 0x05
    1bc6:	84 83       	std	Z+4, r24	; 0x04
    1bc8:	83 83       	std	Z+3, r24	; 0x03
    1bca:	82 83       	std	Z+2, r24	; 0x02
    1bcc:	81 83       	std	Z+1, r24	; 0x01
    1bce:	80 83       	st	Z, r24
    1bd0:	08 95       	ret

00001bd2 <krClearTimers>:
void krClearTimers(void)
{
  u08 indx;
  T_TIMERSPOOL *pTP = (T_TIMERSPOOL*)&TimersPool;
  indx = TIMERSPOOLSIZE;
  r_CntTimers = 0;
    1bd2:	10 92 dc 01 	sts	0x01DC, r1

/** \ingroup grpRTOSA */
void krClearTimers(void)
{
  u08 indx;
  T_TIMERSPOOL *pTP = (T_TIMERSPOOL*)&TimersPool;
    1bd6:	e8 eb       	ldi	r30, 0xB8	; 184
    1bd8:	f0 e0       	ldi	r31, 0x00	; 0
  indx = TIMERSPOOLSIZE;
  r_CntTimers = 0;

  while (indx) {
    pTP->TaskID = MAX_TASK;
    1bda:	9f ef       	ldi	r25, 0xFF	; 255
    pTP->Time = 0;
    pTP->TStp = 1;
    1bdc:	81 e0       	ldi	r24, 0x01	; 1
  T_TIMERSPOOL *pTP = (T_TIMERSPOOL*)&TimersPool;
  indx = TIMERSPOOLSIZE;
  r_CntTimers = 0;

  while (indx) {
    pTP->TaskID = MAX_TASK;
    1bde:	90 83       	st	Z, r25
    pTP->Time = 0;
    1be0:	13 82       	std	Z+3, r1	; 0x03
    1be2:	12 82       	std	Z+2, r1	; 0x02
    pTP->TStp = 1;
    1be4:	81 83       	std	Z+1, r24	; 0x01
    pTP++;
    1be6:	34 96       	adiw	r30, 0x04	; 4
  u08 indx;
  T_TIMERSPOOL *pTP = (T_TIMERSPOOL*)&TimersPool;
  indx = TIMERSPOOLSIZE;
  r_CntTimers = 0;

  while (indx) {
    1be8:	20 e0       	ldi	r18, 0x00	; 0
    1bea:	e8 3d       	cpi	r30, 0xD8	; 216
    1bec:	f2 07       	cpc	r31, r18
    1bee:	b9 f7       	brne	.-18     	; 0x1bde <krClearTimers+0xc>
    pTP->Time = 0;
    pTP->TStp = 1;
    pTP++;
    indx--;
  }
}
    1bf0:	08 95       	ret

00001bf2 <krProcessTaskQueue>:
  //if (0) krProcessTaskQueue();
  u08 index;
  u08 CurTaskID;
  //{ Продвижение очереди вперед на одну задачу
  //  ;< critical section
  ATOMIC_BLOCK(ATOMIC_RESTORESTATE) { /*(ATOMIC_FORCEON)*/
    1bf2:	2f b7       	in	r18, 0x3f	; 63
    return 1;
}

static __inline__ uint8_t __iCliRetVal(void)
{
    cli();
    1bf4:	f8 94       	cli
    index = r_TaskS & (TASKQUEUESIZE - 1);
    1bf6:	80 91 df 01 	lds	r24, 0x01DF
    1bfa:	a8 2f       	mov	r26, r24
    1bfc:	a7 70       	andi	r26, 0x07	; 7
    CurTaskID = TaskQueue[index];
    1bfe:	b0 e0       	ldi	r27, 0x00	; 0
    1c00:	a4 56       	subi	r26, 0x64	; 100
    1c02:	bf 4f       	sbci	r27, 0xFF	; 255
    1c04:	ec 91       	ld	r30, X

    if (CurTaskID != MAX_TASK) {
    1c06:	ef 3f       	cpi	r30, 0xFF	; 255
    1c08:	71 f0       	breq	.+28     	; 0x1c26 <krProcessTaskQueue+0x34>
      TaskQueue[index] = MAX_TASK; /* Помечаем задачу как выполненую*/
    1c0a:	9f ef       	ldi	r25, 0xFF	; 255
    1c0c:	9c 93       	st	X, r25
      /* Прибавляем 1 к младшему полубайту r_TaskS */
      u08 tmp = r_TaskS;
      tmp++;
    1c0e:	91 e0       	ldi	r25, 0x01	; 1
    1c10:	98 0f       	add	r25, r24
      r_TaskS = (r_TaskS & 0b11110000) | ((tmp) % TASKQUEUESIZE);
    1c12:	97 70       	andi	r25, 0x07	; 7
    1c14:	80 7f       	andi	r24, 0xF0	; 240
    1c16:	89 2b       	or	r24, r25
    1c18:	80 93 df 01 	sts	0x01DF, r24
      r_CntTask--;
    1c1c:	80 91 e0 01 	lds	r24, 0x01E0
    1c20:	81 50       	subi	r24, 0x01	; 1
    1c22:	80 93 e0 01 	sts	0x01E0, r24
    (void)__s;
}

static __inline__ void __iRestore(const  uint8_t *__s)
{
    SREG = *__s;
    1c26:	2f bf       	out	0x3f, r18	; 63
      //     krDedug();
    }
  }

  //} Продвижение очереди вперед на одну задачу
  if (CurTaskID != MAX_TASK) {
    1c28:	ef 3f       	cpi	r30, 0xFF	; 255
    1c2a:	49 f0       	breq	.+18     	; 0x1c3e <krProcessTaskQueue+0x4c>
    (TaskProcs[CurTaskID])();  /* Вызов задачи*/
    1c2c:	f0 e0       	ldi	r31, 0x00	; 0
    1c2e:	ee 0f       	add	r30, r30
    1c30:	ff 1f       	adc	r31, r31
    1c32:	eb 58       	subi	r30, 0x8B	; 139
    1c34:	fe 4f       	sbci	r31, 0xFE	; 254
    1c36:	05 90       	lpm	r0, Z+
    1c38:	f4 91       	lpm	r31, Z
    1c3a:	e0 2d       	mov	r30, r0
    1c3c:	09 94       	ijmp
    1c3e:	08 95       	ret

00001c40 <krCallTaskID>:


/** \ingroup grpRTOSA */
void krCallTaskID(u08 TaskID)
{
  (TaskProcs[TaskID])();  /* Вызов задачи*/
    1c40:	e8 2f       	mov	r30, r24
    1c42:	f0 e0       	ldi	r31, 0x00	; 0
    1c44:	ee 0f       	add	r30, r30
    1c46:	ff 1f       	adc	r31, r31
    1c48:	eb 58       	subi	r30, 0x8B	; 139
    1c4a:	fe 4f       	sbci	r31, 0xFE	; 254
    1c4c:	05 90       	lpm	r0, Z+
    1c4e:	f4 91       	lpm	r31, Z
    1c50:	e0 2d       	mov	r30, r0
    1c52:	09 94       	ijmp

00001c54 <krSendTask>:

/** \ingroup grpRTOSA */
void krSendTask(u08 TaskID)
{
  //  ;< critical section
  ATOMIC_BLOCK(ATOMIC_RESTORESTATE) { /*(ATOMIC_FORCEON)*/
    1c54:	4f b7       	in	r20, 0x3f	; 63
    return 1;
}

static __inline__ uint8_t __iCliRetVal(void)
{
    cli();
    1c56:	f8 94       	cli
    1c58:	90 91 df 01 	lds	r25, 0x01DF
    1c5c:	20 91 e0 01 	lds	r18, 0x01E0
    u08 index = r_TaskS >> 4 & (TASKQUEUESIZE - 1);
    1c60:	e9 2f       	mov	r30, r25
    1c62:	e2 95       	swap	r30
    1c64:	e7 70       	andi	r30, 0x07	; 7
    u08 CurTaskID = TaskQueue[index];
    1c66:	f0 e0       	ldi	r31, 0x00	; 0
    1c68:	e4 56       	subi	r30, 0x64	; 100
    1c6a:	ff 4f       	sbci	r31, 0xFF	; 255
    1c6c:	50 81       	ld	r21, Z
    1c6e:	31 e0       	ldi	r19, 0x01	; 1
    1c70:	32 0f       	add	r19, r18

    if (CurTaskID == MAX_TASK) {
    1c72:	5f 3f       	cpi	r21, 0xFF	; 255
    1c74:	11 f0       	breq	.+4      	; 0x1c7a <krSendTask+0x26>
    (void)__s;
}

static __inline__ void __iRestore(const  uint8_t *__s)
{
    SREG = *__s;
    1c76:	4f bf       	out	0x3f, r20	; 63
    __asm__ volatile ("" ::: "memory");
    1c78:	08 95       	ret
      TaskQueue[index] = TaskID;
    1c7a:	80 83       	st	Z, r24
      r_CntTask++;
      /* Прибавляем 1 к старшему полубайту*/
      r_TaskS = (r_TaskS + 0x10) & (((TASKQUEUESIZE - 1) << 4) | 0b1111);
    1c7c:	90 5f       	subi	r25, 0xF0	; 240
    1c7e:	9f 77       	andi	r25, 0x7F	; 127
    1c80:	30 93 e0 01 	sts	0x01E0, r19
    1c84:	90 93 df 01 	sts	0x01DF, r25
    1c88:	f6 cf       	rjmp	.-20     	; 0x1c76 <krSendTask+0x22>

00001c8a <krSetTimer>:

/** \ingroup grpRTOSA */
void krSetTimer(u08 TaskID, u16 Time)
{
  //  ;< critical section
  ATOMIC_BLOCK(ATOMIC_RESTORESTATE) { /*(ATOMIC_FORCEON)*/
    1c8a:	2f b7       	in	r18, 0x3f	; 63
    return 1;
}

static __inline__ uint8_t __iCliRetVal(void)
{
    cli();
    1c8c:	f8 94       	cli
    1c8e:	90 91 dc 01 	lds	r25, 0x01DC
    1c92:	e8 eb       	ldi	r30, 0xB8	; 184
    1c94:	f0 e0       	ldi	r31, 0x00	; 0
    u08 indx;
    T_TIMERSPOOL  *pTP = (T_TIMERSPOOL*)&TimersPool;
    indx = TIMERSPOOLSIZE;

    while (indx) {
      if (pTP->TaskID == TaskID) {
    1c96:	30 81       	ld	r19, Z
    1c98:	38 13       	cpse	r19, r24
    1c9a:	0d c0       	rjmp	.+26     	; 0x1cb6 <krSetTimer+0x2c>
    1c9c:	90 93 dc 01 	sts	0x01DC, r25
        pTP->Time = Time;
    1ca0:	73 83       	std	Z+3, r23	; 0x03
    1ca2:	62 83       	std	Z+2, r22	; 0x02
        pTP->TStp = 0;
    1ca4:	11 82       	std	Z+1, r1	; 0x01

        if (Time == 0) {
    1ca6:	67 2b       	or	r22, r23
    1ca8:	e9 f4       	brne	.+58     	; 0x1ce4 <krSetTimer+0x5a>
          pTP->TaskID = MAX_TASK;
    1caa:	8f ef       	ldi	r24, 0xFF	; 255
    1cac:	80 83       	st	Z, r24
          pTP->TStp = 1;                                                /* Остановка таймера */
    1cae:	81 e0       	ldi	r24, 0x01	; 1
    1cb0:	81 83       	std	Z+1, r24	; 0x01
          r_CntTimers--;
    1cb2:	91 50       	subi	r25, 0x01	; 1
    1cb4:	15 c0       	rjmp	.+42     	; 0x1ce0 <krSetTimer+0x56>
        }

        return;
      }

      pTP++;
    1cb6:	34 96       	adiw	r30, 0x04	; 4
    //  ;< Поиск в очереди таймеров таймера с текущим заданием ID_Task
    u08 indx;
    T_TIMERSPOOL  *pTP = (T_TIMERSPOOL*)&TimersPool;
    indx = TIMERSPOOLSIZE;

    while (indx) {
    1cb8:	30 e0       	ldi	r19, 0x00	; 0
    1cba:	e8 3d       	cpi	r30, 0xD8	; 216
    1cbc:	f3 07       	cpc	r31, r19
    1cbe:	59 f7       	brne	.-42     	; 0x1c96 <krSetTimer+0xc>
    1cc0:	e8 eb       	ldi	r30, 0xB8	; 184
    1cc2:	f0 e0       	ldi	r31, 0x00	; 0
    //  ;< Search in queue Empty Timer
    pTP = (T_TIMERSPOOL*)&TimersPool;
    indx = TIMERSPOOLSIZE;

    while (indx) {
      if (pTP->TaskID == MAX_TASK) {
    1cc4:	30 81       	ld	r19, Z
    1cc6:	3f 3f       	cpi	r19, 0xFF	; 255
    1cc8:	31 f4       	brne	.+12     	; 0x1cd6 <krSetTimer+0x4c>
        pTP->TaskID = TaskID;
    1cca:	80 83       	st	Z, r24
        pTP->Time = Time;
    1ccc:	73 83       	std	Z+3, r23	; 0x03
    1cce:	62 83       	std	Z+2, r22	; 0x02
        pTP->TStp = 0;                                           /* Разрешаем работу таймера */
    1cd0:	11 82       	std	Z+1, r1	; 0x01
    1cd2:	9f 5f       	subi	r25, 0xFF	; 255
    1cd4:	05 c0       	rjmp	.+10     	; 0x1ce0 <krSetTimer+0x56>
        r_CntTimers++;
        break;
      }

      pTP++;
    1cd6:	34 96       	adiw	r30, 0x04	; 4
    //  ;> Поиск в очереди таймеров таймера с текущим заданием ID_Task
    //  ;< Search in queue Empty Timer
    pTP = (T_TIMERSPOOL*)&TimersPool;
    indx = TIMERSPOOLSIZE;

    while (indx) {
    1cd8:	30 e0       	ldi	r19, 0x00	; 0
    1cda:	e8 3d       	cpi	r30, 0xD8	; 216
    1cdc:	f3 07       	cpc	r31, r19
    1cde:	91 f7       	brne	.-28     	; 0x1cc4 <krSetTimer+0x3a>
    1ce0:	90 93 dc 01 	sts	0x01DC, r25
    (void)__s;
}

static __inline__ void __iRestore(const  uint8_t *__s)
{
    SREG = *__s;
    1ce4:	2f bf       	out	0x3f, r18	; 63
    __asm__ volatile ("" ::: "memory");
    1ce6:	08 95       	ret

00001ce8 <krTimerRun>:
  //  ;< Поиск в очереди таймеров таймера с текущим заданием ID_Task
  u08 indx;
  T_TIMERSPOOL  *pTP = (T_TIMERSPOOL*)&TimersPool;
  indx = TIMERSPOOLSIZE;
  //  ;< critical section
  ATOMIC_BLOCK(ATOMIC_RESTORESTATE) { /*(ATOMIC_FORCEON)*/
    1ce8:	9f b7       	in	r25, 0x3f	; 63
    return 1;
}

static __inline__ uint8_t __iCliRetVal(void)
{
    cli();
    1cea:	f8 94       	cli
    1cec:	e8 eb       	ldi	r30, 0xB8	; 184
    1cee:	f0 e0       	ldi	r31, 0x00	; 0
    while (indx) {
      if (pTP->TaskID == TaskID) {
    1cf0:	20 81       	ld	r18, Z
    1cf2:	28 13       	cpse	r18, r24
    1cf4:	02 c0       	rjmp	.+4      	; 0x1cfa <krTimerRun+0x12>
        pTP->TStp = Stp;
    1cf6:	61 83       	std	Z+1, r22	; 0x01
    1cf8:	05 c0       	rjmp	.+10     	; 0x1d04 <krTimerRun+0x1c>
        return;
      }

      pTP++;
    1cfa:	34 96       	adiw	r30, 0x04	; 4
  u08 indx;
  T_TIMERSPOOL  *pTP = (T_TIMERSPOOL*)&TimersPool;
  indx = TIMERSPOOLSIZE;
  //  ;< critical section
  ATOMIC_BLOCK(ATOMIC_RESTORESTATE) { /*(ATOMIC_FORCEON)*/
    while (indx) {
    1cfc:	20 e0       	ldi	r18, 0x00	; 0
    1cfe:	e8 3d       	cpi	r30, 0xD8	; 216
    1d00:	f2 07       	cpc	r31, r18
    1d02:	b1 f7       	brne	.-20     	; 0x1cf0 <krTimerRun+0x8>
    (void)__s;
}

static __inline__ void __iRestore(const  uint8_t *__s)
{
    SREG = *__s;
    1d04:	9f bf       	out	0x3f, r25	; 63
    __asm__ volatile ("" ::: "memory");
    1d06:	08 95       	ret

00001d08 <krGetTimer>:
  //  ;< Поиск в очереди таймеров таймера с текущим заданием ID_Task
  u08 indx;
  T_TIMERSPOOL  *pTP = (T_TIMERSPOOL*)&TimersPool;
  indx = TIMERSPOOLSIZE;
  //  ;< critical section
  ATOMIC_BLOCK(ATOMIC_RESTORESTATE) { /*(ATOMIC_FORCEON)*/
    1d08:	2f b7       	in	r18, 0x3f	; 63
    return 1;
}

static __inline__ uint8_t __iCliRetVal(void)
{
    cli();
    1d0a:	f8 94       	cli
    1d0c:	e8 eb       	ldi	r30, 0xB8	; 184
    1d0e:	f0 e0       	ldi	r31, 0x00	; 0
    while (indx) {
      if (pTP->TaskID == TaskID) {
    1d10:	90 81       	ld	r25, Z
    1d12:	98 13       	cpse	r25, r24
    1d14:	04 c0       	rjmp	.+8      	; 0x1d1e <krGetTimer+0x16>
        return pTP->Time;
    1d16:	82 81       	ldd	r24, Z+2	; 0x02
    1d18:	93 81       	ldd	r25, Z+3	; 0x03
    (void)__s;
}

static __inline__ void __iRestore(const  uint8_t *__s)
{
    SREG = *__s;
    1d1a:	2f bf       	out	0x3f, r18	; 63
    __asm__ volatile ("" ::: "memory");
    1d1c:	08 95       	ret
      }

      pTP++;
    1d1e:	34 96       	adiw	r30, 0x04	; 4
  u08 indx;
  T_TIMERSPOOL  *pTP = (T_TIMERSPOOL*)&TimersPool;
  indx = TIMERSPOOLSIZE;
  //  ;< critical section
  ATOMIC_BLOCK(ATOMIC_RESTORESTATE) { /*(ATOMIC_FORCEON)*/
    while (indx) {
    1d20:	90 e0       	ldi	r25, 0x00	; 0
    1d22:	e8 3d       	cpi	r30, 0xD8	; 216
    1d24:	f9 07       	cpc	r31, r25
    1d26:	a1 f7       	brne	.-24     	; 0x1d10 <krGetTimer+0x8>
    (void)__s;
}

static __inline__ void __iRestore(const  uint8_t *__s)
{
    SREG = *__s;
    1d28:	2f bf       	out	0x3f, r18	; 63
      indx--;
    }

    //  ;> Поиск в очереди таймеров таймера с текущим заданием ID_Task
  }
  return 0;
    1d2a:	80 e0       	ldi	r24, 0x00	; 0
    1d2c:	90 e0       	ldi	r25, 0x00	; 0
}
    1d2e:	08 95       	ret

00001d30 <krClrTimer>:
/** \ingroup grpRTOSA */
void krClrTimer(u08 TaskID)
{
  //  ;< critical section
  ATOMIC_BLOCK(ATOMIC_RESTORESTATE) { /*(ATOMIC_FORCEON)*/
    1d30:	9f b7       	in	r25, 0x3f	; 63
    return 1;
}

static __inline__ uint8_t __iCliRetVal(void)
{
    cli();
    1d32:	f8 94       	cli
    1d34:	e8 eb       	ldi	r30, 0xB8	; 184
    1d36:	f0 e0       	ldi	r31, 0x00	; 0
    u08 indx;
    T_TIMERSPOOL* pTP = (T_TIMERSPOOL*)&TimersPool;
    indx = TIMERSPOOLSIZE;

    while (indx) {
      if (pTP->TaskID == TaskID) {
    1d38:	20 81       	ld	r18, Z
    1d3a:	28 13       	cpse	r18, r24
    1d3c:	07 c0       	rjmp	.+14     	; 0x1d4c <krClrTimer+0x1c>
        pTP->TaskID = MAX_TASK;
    1d3e:	8f ef       	ldi	r24, 0xFF	; 255
    1d40:	80 83       	st	Z, r24
        pTP->Time = 0;
    1d42:	13 82       	std	Z+3, r1	; 0x03
    1d44:	12 82       	std	Z+2, r1	; 0x02
        pTP->TStp = 1;
    1d46:	81 e0       	ldi	r24, 0x01	; 1
    1d48:	81 83       	std	Z+1, r24	; 0x01
    1d4a:	05 c0       	rjmp	.+10     	; 0x1d56 <krClrTimer+0x26>
        return;
      }

      pTP++;
    1d4c:	34 96       	adiw	r30, 0x04	; 4
    //  ;< Поиск в очереди таймеров таймера с текущим заданием ID_Task
    u08 indx;
    T_TIMERSPOOL* pTP = (T_TIMERSPOOL*)&TimersPool;
    indx = TIMERSPOOLSIZE;

    while (indx) {
    1d4e:	20 e0       	ldi	r18, 0x00	; 0
    1d50:	e8 3d       	cpi	r30, 0xD8	; 216
    1d52:	f2 07       	cpc	r31, r18
    1d54:	89 f7       	brne	.-30     	; 0x1d38 <krClrTimer+0x8>
    (void)__s;
}

static __inline__ void __iRestore(const  uint8_t *__s)
{
    SREG = *__s;
    1d56:	9f bf       	out	0x3f, r25	; 63
    __asm__ volatile ("" ::: "memory");
    1d58:	08 95       	ret

00001d5a <krMemFill>:
  //  ;> critical section
}
/** \ingroup grpRTOSA */
void krMemFill(u08 * aMem, u08 bVal, u08 bSize)
{
  while (bSize) {
    1d5a:	44 23       	and	r20, r20
    1d5c:	29 f0       	breq	.+10     	; 0x1d68 <krMemFill+0xe>
    *aMem++ = bVal;
    1d5e:	fc 01       	movw	r30, r24
    1d60:	61 93       	st	Z+, r22
    1d62:	cf 01       	movw	r24, r30
    bSize--;
    1d64:	41 50       	subi	r20, 0x01	; 1
    1d66:	f9 cf       	rjmp	.-14     	; 0x1d5a <krMemFill>
  }
}
    1d68:	08 95       	ret

00001d6a <krMemCopyR2R>:
/** \ingroup grpRTOSA */
void krMemCopyR2R(u08 * aMemS, u08 * aMemD, u08 bSize)
{
  while (bSize) {
    1d6a:	44 23       	and	r20, r20
    1d6c:	41 f0       	breq	.+16     	; 0x1d7e <krMemCopyR2R+0x14>
    *aMemD = *aMemS;
    1d6e:	fc 01       	movw	r30, r24
    1d70:	21 91       	ld	r18, Z+
    1d72:	cf 01       	movw	r24, r30
    1d74:	fb 01       	movw	r30, r22
    1d76:	21 93       	st	Z+, r18
    1d78:	bf 01       	movw	r22, r30
    aMemD++;
    aMemS++;
    bSize--;
    1d7a:	41 50       	subi	r20, 0x01	; 1
    1d7c:	f6 cf       	rjmp	.-20     	; 0x1d6a <krMemCopyR2R>
  }
}
    1d7e:	08 95       	ret

00001d80 <krMemCopyF2R>:
/** \ingroup grpRTOSA */
void krMemCopyF2R(const u08 __flash * aMemS, u08 * aMemD, u08 bSize)
{
    1d80:	db 01       	movw	r26, r22
  while (bSize--) {
    1d82:	41 50       	subi	r20, 0x01	; 1
    1d84:	28 f0       	brcs	.+10     	; 0x1d90 <krMemCopyF2R+0x10>
    *aMemD++ = *aMemS++;
    1d86:	fc 01       	movw	r30, r24
    1d88:	01 96       	adiw	r24, 0x01	; 1
    1d8a:	25 91       	lpm	r18, Z+
    1d8c:	2d 93       	st	X+, r18
    1d8e:	f9 cf       	rjmp	.-14     	; 0x1d82 <krMemCopyF2R+0x2>
    //    *aMemD = *aMemS;
    //    aMemD++;
    //    aMemS++;
    //    bSize--;
  }
}
    1d90:	08 95       	ret

00001d92 <krRand>:
/** \ingroup grpRTOSA */
u08 krRand(void)
{
  r_RND = ((u16)r_RND * 13 + 17) % 256;
    1d92:	80 91 de 01 	lds	r24, 0x01DE
    1d96:	9d e0       	ldi	r25, 0x0D	; 13
    1d98:	89 9f       	mul	r24, r25
    1d9a:	80 2d       	mov	r24, r0
    1d9c:	11 24       	eor	r1, r1
    1d9e:	8f 5e       	subi	r24, 0xEF	; 239
    1da0:	80 93 de 01 	sts	0x01DE, r24
  return r_RND;
}
    1da4:	08 95       	ret

00001da6 <__vector_10>:
}
#elif   defined(__AVR_ATmega32__)\
      ||defined(__AVR_ATmega64__)\
      ||defined(__AVR_ATmega16__)
ISR(TIMER0_COMP_vect)
{
    1da6:	1f 92       	push	r1
    1da8:	0f 92       	push	r0
    1daa:	0f b6       	in	r0, 0x3f	; 63
    1dac:	0f 92       	push	r0
    1dae:	11 24       	eor	r1, r1
    1db0:	1f 93       	push	r17
    1db2:	2f 93       	push	r18
    1db4:	3f 93       	push	r19
    1db6:	4f 93       	push	r20
    1db8:	5f 93       	push	r21
    1dba:	6f 93       	push	r22
    1dbc:	7f 93       	push	r23
    1dbe:	8f 93       	push	r24
    1dc0:	9f 93       	push	r25
    1dc2:	af 93       	push	r26
    1dc4:	bf 93       	push	r27
    1dc6:	cf 93       	push	r28
    1dc8:	df 93       	push	r29
    1dca:	ef 93       	push	r30
    1dcc:	ff 93       	push	r31
/** \ingroup grpRTOSA */
inline void mTimerService(void)
{
  u08 indx;
  T_TIMERSPOOL* pTP = (T_TIMERSPOOL*)&TimersPool;
  ADCSRA |= (1 << ADSC);      //ADC Start Conversion
    1dce:	36 9a       	sbi	0x06, 6	; 6
}
/** \ingroup grpRTOSA */
inline void mTimerService(void)
{
  u08 indx;
  T_TIMERSPOOL* pTP = (T_TIMERSPOOL*)&TimersPool;
    1dd0:	c8 eb       	ldi	r28, 0xB8	; 184
    1dd2:	d0 e0       	ldi	r29, 0x00	; 0
      if ((pTP->TStp == 0)) {
        pTP->Time--;

        if (pTP->Time == 0) {
          krSendTask(pTP->TaskID);
          pTP->TaskID = MAX_TASK;
    1dd4:	1f ef       	ldi	r17, 0xFF	; 255
  T_TIMERSPOOL* pTP = (T_TIMERSPOOL*)&TimersPool;
  ADCSRA |= (1 << ADSC);      //ADC Start Conversion
  indx = TIMERSPOOLSIZE;

  while (indx) {
    if ((pTP->TaskID != MAX_TASK)) {
    1dd6:	88 81       	ld	r24, Y
    1dd8:	8f 3f       	cpi	r24, 0xFF	; 255
    1dda:	99 f0       	breq	.+38     	; 0x1e02 <__vector_10+0x5c>
      if ((pTP->TStp == 0)) {
    1ddc:	99 81       	ldd	r25, Y+1	; 0x01
    1dde:	91 11       	cpse	r25, r1
    1de0:	10 c0       	rjmp	.+32     	; 0x1e02 <__vector_10+0x5c>
        pTP->Time--;
    1de2:	2a 81       	ldd	r18, Y+2	; 0x02
    1de4:	3b 81       	ldd	r19, Y+3	; 0x03
    1de6:	21 50       	subi	r18, 0x01	; 1
    1de8:	31 09       	sbc	r19, r1
    1dea:	3b 83       	std	Y+3, r19	; 0x03
    1dec:	2a 83       	std	Y+2, r18	; 0x02

        if (pTP->Time == 0) {
    1dee:	23 2b       	or	r18, r19
    1df0:	41 f4       	brne	.+16     	; 0x1e02 <__vector_10+0x5c>
          krSendTask(pTP->TaskID);
    1df2:	0e 94 2a 0e 	call	0x1c54	; 0x1c54 <krSendTask>
          pTP->TaskID = MAX_TASK;
    1df6:	18 83       	st	Y, r17
          r_CntTimers--;
    1df8:	80 91 dc 01 	lds	r24, 0x01DC
    1dfc:	81 50       	subi	r24, 0x01	; 1
    1dfe:	80 93 dc 01 	sts	0x01DC, r24
        }
      }
    }

    pTP++;
    1e02:	24 96       	adiw	r28, 0x04	; 4
  u08 indx;
  T_TIMERSPOOL* pTP = (T_TIMERSPOOL*)&TimersPool;
  ADCSRA |= (1 << ADSC);      //ADC Start Conversion
  indx = TIMERSPOOLSIZE;

  while (indx) {
    1e04:	80 e0       	ldi	r24, 0x00	; 0
    1e06:	c8 3d       	cpi	r28, 0xD8	; 216
    1e08:	d8 07       	cpc	r29, r24
    1e0a:	29 f7       	brne	.-54     	; 0x1dd6 <__vector_10+0x30>

    pTP++;
    indx--;
  }

  vOS_Tick ++;
    1e0c:	80 91 e1 01 	lds	r24, 0x01E1
    1e10:	90 91 e2 01 	lds	r25, 0x01E2
    1e14:	a0 91 e3 01 	lds	r26, 0x01E3
    1e18:	b0 91 e4 01 	lds	r27, 0x01E4
    1e1c:	01 96       	adiw	r24, 0x01	; 1
    1e1e:	a1 1d       	adc	r26, r1
    1e20:	b1 1d       	adc	r27, r1
    1e22:	80 93 e1 01 	sts	0x01E1, r24
    1e26:	90 93 e2 01 	sts	0x01E2, r25
    1e2a:	a0 93 e3 01 	sts	0x01E3, r26
    1e2e:	b0 93 e4 01 	sts	0x01E4, r27
      ||defined(__AVR_ATmega64__)\
      ||defined(__AVR_ATmega16__)
ISR(TIMER0_COMP_vect)
{
  mTimerService();
}
    1e32:	ff 91       	pop	r31
    1e34:	ef 91       	pop	r30
    1e36:	df 91       	pop	r29
    1e38:	cf 91       	pop	r28
    1e3a:	bf 91       	pop	r27
    1e3c:	af 91       	pop	r26
    1e3e:	9f 91       	pop	r25
    1e40:	8f 91       	pop	r24
    1e42:	7f 91       	pop	r23
    1e44:	6f 91       	pop	r22
    1e46:	5f 91       	pop	r21
    1e48:	4f 91       	pop	r20
    1e4a:	3f 91       	pop	r19
    1e4c:	2f 91       	pop	r18
    1e4e:	1f 91       	pop	r17
    1e50:	0f 90       	pop	r0
    1e52:	0f be       	out	0x3f, r0	; 63
    1e54:	0f 90       	pop	r0
    1e56:	1f 90       	pop	r1
    1e58:	18 95       	reti

00001e5a <f_Write_CRC_Block>:
Sets_t vSets;           /**< Текущие настройки выбранного режима работы */
Sets_com_t vSets_com;   /**< Общие настройки контроллера */


u16 f_Write_CRC_Block(u08 *pBuf, u08 *pEBuf, u16 nByte)
{
    1e5a:	8f 92       	push	r8
    1e5c:	9f 92       	push	r9
    1e5e:	bf 92       	push	r11
    1e60:	cf 92       	push	r12
    1e62:	df 92       	push	r13
    1e64:	ef 92       	push	r14
    1e66:	ff 92       	push	r15
    1e68:	0f 93       	push	r16
    1e6a:	1f 93       	push	r17
    1e6c:	cf 93       	push	r28
    1e6e:	df 93       	push	r29
    1e70:	00 d0       	rcall	.+0      	; 0x1e72 <f_Write_CRC_Block+0x18>
    1e72:	cd b7       	in	r28, 0x3d	; 61
    1e74:	de b7       	in	r29, 0x3e	; 62
    1e76:	4c 01       	movw	r8, r24
    1e78:	7b 01       	movw	r14, r22
  u16 tmpCRC;
  u16 *pCRC;
  u16 nDataByte;
  nDataByte = nByte - sizeof(tmpCRC);
    1e7a:	ba 01       	movw	r22, r20
    1e7c:	62 50       	subi	r22, 0x02	; 2
    1e7e:	71 09       	sbc	r23, r1
  pCRC = (u16*)(pBuf + nDataByte);
    1e80:	6c 01       	movw	r12, r24
    1e82:	c6 0e       	add	r12, r22
    1e84:	d7 1e       	adc	r13, r23
  ATOMIC_BLOCK(ATOMIC_RESTORESTATE) {
    1e86:	bf b6       	in	r11, 0x3f	; 63
    return 1;
}

static __inline__ uint8_t __iCliRetVal(void)
{
    cli();
    1e88:	f8 94       	cli
    tmpCRC = fCRC16(pBuf, nByte - sizeof(tmpCRC));
    1e8a:	49 83       	std	Y+1, r20	; 0x01
    1e8c:	5a 83       	std	Y+2, r21	; 0x02
    1e8e:	0e 94 6c 0c 	call	0x18d8	; 0x18d8 <fCRC16>
    1e92:	8c 01       	movw	r16, r24
    *pCRC = tmpCRC;
    1e94:	f6 01       	movw	r30, r12
    1e96:	91 83       	std	Z+1, r25	; 0x01
    1e98:	80 83       	st	Z, r24
    eeprom_update_block(pBuf, pEBuf, nByte);
    1e9a:	49 81       	ldd	r20, Y+1	; 0x01
    1e9c:	5a 81       	ldd	r21, Y+2	; 0x02
    1e9e:	b7 01       	movw	r22, r14
    1ea0:	c4 01       	movw	r24, r8
    1ea2:	0e 94 94 10 	call	0x2128	; 0x2128 <eeprom_update_block>
    (void)__s;
}

static __inline__ void __iRestore(const  uint8_t *__s)
{
    SREG = *__s;
    1ea6:	bf be       	out	0x3f, r11	; 63
  }
  return tmpCRC;
}
    1ea8:	c8 01       	movw	r24, r16
    1eaa:	0f 90       	pop	r0
    1eac:	0f 90       	pop	r0
    1eae:	df 91       	pop	r29
    1eb0:	cf 91       	pop	r28
    1eb2:	1f 91       	pop	r17
    1eb4:	0f 91       	pop	r16
    1eb6:	ff 90       	pop	r15
    1eb8:	ef 90       	pop	r14
    1eba:	df 90       	pop	r13
    1ebc:	cf 90       	pop	r12
    1ebe:	bf 90       	pop	r11
    1ec0:	9f 90       	pop	r9
    1ec2:	8f 90       	pop	r8
    1ec4:	08 95       	ret

00001ec6 <fSetsRead>:


void fSetsRead(void)
{
    1ec6:	cf 93       	push	r28
  volatile Flg_t *pFlg = (Flg_t*)(&gFlagsL); /* Инициализация указателя на структуру флагов */
  pFlg->CfgOK = 1; // Установка флага с настройками всё впорядке/
    1ec8:	01 9a       	sbi	0x00, 1	; 0
  u16 *pvSets;
  uint16_t *pevSets;
  u16 vSets_com_CRC;
  u16 vSets_CRC;
  ATOMIC_BLOCK(ATOMIC_RESTORESTATE) {
    1eca:	cf b7       	in	r28, 0x3f	; 63
    return 1;
}

static __inline__ uint8_t __iCliRetVal(void)
{
    cli();
    1ecc:	f8 94       	cli
    eeprom_read_block(&vSets_com, &evSets_com, sizeof(vSets_com));
    1ece:	4c e0       	ldi	r20, 0x0C	; 12
    1ed0:	50 e0       	ldi	r21, 0x00	; 0
    1ed2:	62 e1       	ldi	r22, 0x12	; 18
    1ed4:	70 e0       	ldi	r23, 0x00	; 0
    1ed6:	87 ef       	ldi	r24, 0xF7	; 247
    1ed8:	91 e0       	ldi	r25, 0x01	; 1
    1eda:	0e 94 84 10 	call	0x2108	; 0x2108 <eeprom_read_block>
    vSets_com_CRC = fCRC16((u08*)&vSets_com, sizeof(vSets_com));
    1ede:	6c e0       	ldi	r22, 0x0C	; 12
    1ee0:	70 e0       	ldi	r23, 0x00	; 0
    1ee2:	87 ef       	ldi	r24, 0xF7	; 247
    1ee4:	91 e0       	ldi	r25, 0x01	; 1
    1ee6:	0e 94 6c 0c 	call	0x18d8	; 0x18d8 <fCRC16>

    if (vSets_com_CRC != 0) {
    1eea:	89 2b       	or	r24, r25
    1eec:	49 f0       	breq	.+18     	; 0x1f00 <fSetsRead+0x3a>
      /* Ошибка CRC настроек */
      pFlg->CfgOK = 0;                       /* Сброс флага с настройками не всё впорядке, */
    1eee:	01 98       	cbi	0x00, 1	; 0
      pszError = (u08*)&szFaultCRCc;
    1ef0:	87 e8       	ldi	r24, 0x87	; 135
    1ef2:	90 e0       	ldi	r25, 0x00	; 0
    1ef4:	90 93 a5 00 	sts	0x00A5, r25
    1ef8:	80 93 a4 00 	sts	0x00A4, r24
    (void)__s;
}

static __inline__ void __iRestore(const  uint8_t *__s)
{
    SREG = *__s;
    1efc:	cf bf       	out	0x3f, r28	; 63
    __asm__ volatile ("" ::: "memory");
    1efe:	18 c0       	rjmp	.+48     	; 0x1f30 <fSetsRead+0x6a>
      return;
    }

    pvSets  = (u16*)&vSets;
    pevSets = (uint16_t*)&evSets_Usr1;
    eeprom_read_block(pvSets, pevSets, sizeof(Sets_t));
    1f00:	42 e1       	ldi	r20, 0x12	; 18
    1f02:	50 e0       	ldi	r21, 0x00	; 0
    1f04:	60 e0       	ldi	r22, 0x00	; 0
    1f06:	70 e0       	ldi	r23, 0x00	; 0
    1f08:	85 ee       	ldi	r24, 0xE5	; 229
    1f0a:	91 e0       	ldi	r25, 0x01	; 1
    1f0c:	0e 94 84 10 	call	0x2108	; 0x2108 <eeprom_read_block>
    vSets_CRC = fCRC16((u08*)&vSets, sizeof(vSets));
    1f10:	62 e1       	ldi	r22, 0x12	; 18
    1f12:	70 e0       	ldi	r23, 0x00	; 0
    1f14:	85 ee       	ldi	r24, 0xE5	; 229
    1f16:	91 e0       	ldi	r25, 0x01	; 1
    1f18:	0e 94 6c 0c 	call	0x18d8	; 0x18d8 <fCRC16>
    (void)__s;
}

static __inline__ void __iRestore(const  uint8_t *__s)
{
    SREG = *__s;
    1f1c:	cf bf       	out	0x3f, r28	; 63
  }

  if (vSets_CRC != 0) {
    1f1e:	89 2b       	or	r24, r25
    1f20:	39 f0       	breq	.+14     	; 0x1f30 <fSetsRead+0x6a>
    /* Ошибка CRC настроек сервисного меню */
    pFlg->CfgOK = 0;                       /* Сброс флага с настройками не всё впорядке, */
    1f22:	01 98       	cbi	0x00, 1	; 0
    pszError = (u08*)&szFaultCRCs;
    1f24:	8a e8       	ldi	r24, 0x8A	; 138
    1f26:	90 e0       	ldi	r25, 0x00	; 0
    1f28:	90 93 a5 00 	sts	0x00A5, r25
    1f2c:	80 93 a4 00 	sts	0x00A4, r24
  }

  return;
}  /* void fReadSets(void) */
    1f30:	cf 91       	pop	r28
    1f32:	08 95       	ret

00001f34 <fSetsWrite>:


void fSetsWrite(void)
{
    1f34:	cf 93       	push	r28
  u16 *pvSets;
  uint16_t *pevSets;
  ATOMIC_BLOCK(ATOMIC_RESTORESTATE) {
    1f36:	cf b7       	in	r28, 0x3f	; 63
    return 1;
}

static __inline__ uint8_t __iCliRetVal(void)
{
    cli();
    1f38:	f8 94       	cli
    pvSets  = (u16*)&vSets;
    vSets_com.CRC = fCRC16((u08*)&vSets_com, sizeof(vSets_com) - sizeof(vSets_com.CRC));
    1f3a:	6a e0       	ldi	r22, 0x0A	; 10
    1f3c:	70 e0       	ldi	r23, 0x00	; 0
    1f3e:	87 ef       	ldi	r24, 0xF7	; 247
    1f40:	91 e0       	ldi	r25, 0x01	; 1
    1f42:	0e 94 6c 0c 	call	0x18d8	; 0x18d8 <fCRC16>
    1f46:	90 93 02 02 	sts	0x0202, r25
    1f4a:	80 93 01 02 	sts	0x0201, r24
    vSets.CRC = fCRC16((u08*)&vSets, sizeof(vSets) - sizeof(vSets.CRC));
    1f4e:	60 e1       	ldi	r22, 0x10	; 16
    1f50:	70 e0       	ldi	r23, 0x00	; 0
    1f52:	85 ee       	ldi	r24, 0xE5	; 229
    1f54:	91 e0       	ldi	r25, 0x01	; 1
    1f56:	0e 94 6c 0c 	call	0x18d8	; 0x18d8 <fCRC16>
    1f5a:	90 93 f6 01 	sts	0x01F6, r25
    1f5e:	80 93 f5 01 	sts	0x01F5, r24
    eeprom_update_block(&vSets_com, &evSets_com, sizeof(vSets_com));
    1f62:	4c e0       	ldi	r20, 0x0C	; 12
    1f64:	50 e0       	ldi	r21, 0x00	; 0
    1f66:	62 e1       	ldi	r22, 0x12	; 18
    1f68:	70 e0       	ldi	r23, 0x00	; 0
    1f6a:	87 ef       	ldi	r24, 0xF7	; 247
    1f6c:	91 e0       	ldi	r25, 0x01	; 1
    1f6e:	0e 94 94 10 	call	0x2128	; 0x2128 <eeprom_update_block>
    pevSets  = (uint16_t*)&evSets_Usr1;
    eeprom_update_block(pvSets, pevSets, sizeof(Sets_t));
    1f72:	42 e1       	ldi	r20, 0x12	; 18
    1f74:	50 e0       	ldi	r21, 0x00	; 0
    1f76:	60 e0       	ldi	r22, 0x00	; 0
    1f78:	70 e0       	ldi	r23, 0x00	; 0
    1f7a:	85 ee       	ldi	r24, 0xE5	; 229
    1f7c:	91 e0       	ldi	r25, 0x01	; 1
    1f7e:	0e 94 94 10 	call	0x2128	; 0x2128 <eeprom_update_block>
    (void)__s;
}

static __inline__ void __iRestore(const  uint8_t *__s)
{
    SREG = *__s;
    1f82:	cf bf       	out	0x3f, r28	; 63
  }
  return;
}   /* void fWriteSets(void) */
    1f84:	cf 91       	pop	r28
    1f86:	08 95       	ret

00001f88 <main>:
  /* Join my output function and xitoa module */
  // xdev_out(send);
  //
  //  mPinOut(SCREW);
  //  mPinClr(SCREW);
  fOut_vPort(2, 0xff, IDDDR);
    1f88:	41 e0       	ldi	r20, 0x01	; 1
    1f8a:	50 e0       	ldi	r21, 0x00	; 0
    1f8c:	6f ef       	ldi	r22, 0xFF	; 255
    1f8e:	82 e0       	ldi	r24, 0x02	; 2
    1f90:	0e 94 34 0b 	call	0x1668	; 0x1668 <fOut_vPort>
  volatile Flg_t *pFlg = (Flg_t*)(&gFlagsL);  // Инициализация указателя на структуру флагов /
  (*(u08*)pFlg) = 0x00;                                                /* Очистка всех флагов*/
    1f94:	10 b8       	out	0x00, r1	; 0
//  pFlg->FuelOK = 1;
//  v_ORele_Manual = 0;
//  v_OLed_Manual = 0;
  fDin_Init();
    1f96:	0e 94 f8 08 	call	0x11f0	; 0x11f0 <fDin_Init>
 * \note TODO
 * \~
 */
inline void krRTOSA_Init(void)
{
  r_TaskS = 0;        // Очистить регистр
    1f9a:	10 92 df 01 	sts	0x01DF, r1
  r_CntTask = 0;      // Очистить кол-во задач стоящих в очереди событий
    1f9e:	10 92 e0 01 	sts	0x01E0, r1
  krClearTimers();    // Очистить список таймеров РТОС
    1fa2:	0e 94 e9 0d 	call	0x1bd2	; 0x1bd2 <krClearTimers>
  krClearTaskQueue(); // Очистить очередь событий РТОС
    1fa6:	0e 94 dd 0d 	call	0x1bba	; 0x1bba <krClearTaskQueue>
  TCCR0A = 0;
  TCCR0B = Val_TCCR0 & 0b111;
#elif defined(__AVR_ATmega32__)\
    ||defined(__AVR_ATmega16__)
  // FOC0 WGM00 COM01 COM00 WGM01 CS02 CS01 CS00
  TCCR0 |= (1 << WGM01) | (0 << WGM00) | (Val_TCCR0 & 0b111);
    1faa:	83 b7       	in	r24, 0x33	; 51
    1fac:	8d 60       	ori	r24, 0x0D	; 13
    1fae:	83 bf       	out	0x33, r24	; 51
{
  r_TaskS = 0;        // Очистить регистр
  r_CntTask = 0;      // Очистить кол-во задач стоящих в очереди событий
  krClearTimers();    // Очистить список таймеров РТОС
  krClearTaskQueue(); // Очистить очередь событий РТОС
  T0_Reload = 256UL - mInitTicOS(FreqOS);
    1fb0:	82 eb       	ldi	r24, 0xB2	; 178
    1fb2:	80 93 dd 01 	sts	0x01DD, r24
#if defined(__AVR_ATmega8__)
  TIMSK |= (1 << TOIE0); //Bit 0 - TOIE0: Timer/Counter0 Overflow Interrupt Enable
#elif   defined(__AVR_ATmega32__)\
      ||defined(__AVR_ATmega64__)\
    ||defined(__AVR_ATmega16__)
  OCR0 = 256 - T0_Reload;
    1fb6:	8e e4       	ldi	r24, 0x4E	; 78
    1fb8:	8c bf       	out	0x3c, r24	; 60
  TIMSK |= (1 << OCIE0); //Bit 1 - OCIE0: Timer/Counter0 Output Compare Match Interrupt Enable
    1fba:	89 b7       	in	r24, 0x39	; 57
    1fbc:	82 60       	ori	r24, 0x02	; 2
    1fbe:	89 bf       	out	0x39, r24	; 57
  krRTOSA_Init();
  fMenuInit();                                       /* Инициализация меню и Чтение настроек */
    1fc0:	0e 94 7c 09 	call	0x12f8	; 0x12f8 <fMenuInit>
  fADCInit();                                                               /* Настройка АЦП */
    1fc4:	0e 94 cd 07 	call	0xf9a	; 0xf9a <fADCInit>
//  TIFR = -1;
//  GIFR = -1;
  fBuzInit();
    1fc8:	0e 94 8e 0c 	call	0x191c	; 0x191c <fBuzInit>
  sei();
    1fcc:	78 94       	sei
  fMenu();                                                         /*  !!!!! */
    1fce:	0e 94 36 0d 	call	0x1a6c	; 0x1a6c <fMenu>
  fFlash();
    1fd2:	0e 94 61 0c 	call	0x18c2	; 0x18c2 <fFlash>
  fIdle();
    1fd6:	0e 94 58 0c 	call	0x18b0	; 0x18b0 <fIdle>
  fKBD_Init();
    1fda:	0e 94 50 08 	call	0x10a0	; 0x10a0 <fKBD_Init>
__attribute__ ((__always_inline__))
void wdt_enable (const uint8_t value)
{
	if (_SFR_IO_REG_P (_WD_CONTROL_REG))
	{
		__asm__ __volatile__ (
    1fde:	9f e0       	ldi	r25, 0x0F	; 15
    1fe0:	88 e1       	ldi	r24, 0x18	; 24
    1fe2:	0f b6       	in	r0, 0x3f	; 63
    1fe4:	f8 94       	cli
    1fe6:	a8 95       	wdr
    1fe8:	81 bd       	out	0x21, r24	; 33
    1fea:	0f be       	out	0x3f, r0	; 63
    1fec:	91 bd       	out	0x21, r25	; 33
//  }

  //  wdt_enable(WDTO_2S);
  //  wdt_disable();
  wdt_enable(WDTO_2S);
  fSQInit();
    1fee:	0e 94 c5 07 	call	0xf8a	; 0xf8a <fSQInit>

// vRegParam.ADC_Temp = fGetADC_from_TempLM335(1);
// vRegParam.Temp = fGetTempLM335(65535)-273;

  while (1) {
    krProcessTaskQueue();
    1ff2:	0e 94 f9 0d 	call	0x1bf2	; 0x1bf2 <krProcessTaskQueue>
#ifndef PROTEUS

    if (1){
    //if (TIFR & (1 << TOV2)) {
      fDin_Fresh();
    1ff6:	0e 94 17 09 	call	0x122e	; 0x122e <fDin_Fresh>
    }

#endif
    fADC_Exe();
    1ffa:	0e 94 10 08 	call	0x1020	; 0x1020 <fADC_Exe>
    fBuzer();
    1ffe:	0e 94 9e 0c 	call	0x193c	; 0x193c <fBuzer>
    wdt_reset();
    2002:	a8 95       	wdr
  }
    2004:	f6 cf       	rjmp	.-20     	; 0x1ff2 <main+0x6a>

00002006 <__udivmodqi4>:
    2006:	99 1b       	sub	r25, r25
    2008:	79 e0       	ldi	r23, 0x09	; 9
    200a:	04 c0       	rjmp	.+8      	; 0x2014 <__udivmodqi4_ep>

0000200c <__udivmodqi4_loop>:
    200c:	99 1f       	adc	r25, r25
    200e:	96 17       	cp	r25, r22
    2010:	08 f0       	brcs	.+2      	; 0x2014 <__udivmodqi4_ep>
    2012:	96 1b       	sub	r25, r22

00002014 <__udivmodqi4_ep>:
    2014:	88 1f       	adc	r24, r24
    2016:	7a 95       	dec	r23
    2018:	c9 f7       	brne	.-14     	; 0x200c <__udivmodqi4_loop>
    201a:	80 95       	com	r24
    201c:	08 95       	ret

0000201e <__udivmodhi4>:
    201e:	aa 1b       	sub	r26, r26
    2020:	bb 1b       	sub	r27, r27
    2022:	51 e1       	ldi	r21, 0x11	; 17
    2024:	07 c0       	rjmp	.+14     	; 0x2034 <__udivmodhi4_ep>

00002026 <__udivmodhi4_loop>:
    2026:	aa 1f       	adc	r26, r26
    2028:	bb 1f       	adc	r27, r27
    202a:	a6 17       	cp	r26, r22
    202c:	b7 07       	cpc	r27, r23
    202e:	10 f0       	brcs	.+4      	; 0x2034 <__udivmodhi4_ep>
    2030:	a6 1b       	sub	r26, r22
    2032:	b7 0b       	sbc	r27, r23

00002034 <__udivmodhi4_ep>:
    2034:	88 1f       	adc	r24, r24
    2036:	99 1f       	adc	r25, r25
    2038:	5a 95       	dec	r21
    203a:	a9 f7       	brne	.-22     	; 0x2026 <__udivmodhi4_loop>
    203c:	80 95       	com	r24
    203e:	90 95       	com	r25
    2040:	bc 01       	movw	r22, r24
    2042:	cd 01       	movw	r24, r26
    2044:	08 95       	ret

00002046 <__divmodsi4>:
    2046:	05 2e       	mov	r0, r21
    2048:	97 fb       	bst	r25, 7
    204a:	1e f4       	brtc	.+6      	; 0x2052 <__divmodsi4+0xc>
    204c:	00 94       	com	r0
    204e:	0e 94 3a 10 	call	0x2074	; 0x2074 <__negsi2>
    2052:	57 fd       	sbrc	r21, 7
    2054:	07 d0       	rcall	.+14     	; 0x2064 <__divmodsi4_neg2>
    2056:	0e 94 62 10 	call	0x20c4	; 0x20c4 <__udivmodsi4>
    205a:	07 fc       	sbrc	r0, 7
    205c:	03 d0       	rcall	.+6      	; 0x2064 <__divmodsi4_neg2>
    205e:	4e f4       	brtc	.+18     	; 0x2072 <__divmodsi4_exit>
    2060:	0c 94 3a 10 	jmp	0x2074	; 0x2074 <__negsi2>

00002064 <__divmodsi4_neg2>:
    2064:	50 95       	com	r21
    2066:	40 95       	com	r20
    2068:	30 95       	com	r19
    206a:	21 95       	neg	r18
    206c:	3f 4f       	sbci	r19, 0xFF	; 255
    206e:	4f 4f       	sbci	r20, 0xFF	; 255
    2070:	5f 4f       	sbci	r21, 0xFF	; 255

00002072 <__divmodsi4_exit>:
    2072:	08 95       	ret

00002074 <__negsi2>:
    2074:	90 95       	com	r25
    2076:	80 95       	com	r24
    2078:	70 95       	com	r23
    207a:	61 95       	neg	r22
    207c:	7f 4f       	sbci	r23, 0xFF	; 255
    207e:	8f 4f       	sbci	r24, 0xFF	; 255
    2080:	9f 4f       	sbci	r25, 0xFF	; 255
    2082:	08 95       	ret

00002084 <__tablejump2__>:
    2084:	ee 0f       	add	r30, r30
    2086:	ff 1f       	adc	r31, r31
    2088:	05 90       	lpm	r0, Z+
    208a:	f4 91       	lpm	r31, Z
    208c:	e0 2d       	mov	r30, r0
    208e:	09 94       	ijmp

00002090 <__umulhisi3>:
    2090:	a2 9f       	mul	r26, r18
    2092:	b0 01       	movw	r22, r0
    2094:	b3 9f       	mul	r27, r19
    2096:	c0 01       	movw	r24, r0
    2098:	a3 9f       	mul	r26, r19
    209a:	70 0d       	add	r23, r0
    209c:	81 1d       	adc	r24, r1
    209e:	11 24       	eor	r1, r1
    20a0:	91 1d       	adc	r25, r1
    20a2:	b2 9f       	mul	r27, r18
    20a4:	70 0d       	add	r23, r0
    20a6:	81 1d       	adc	r24, r1
    20a8:	11 24       	eor	r1, r1
    20aa:	91 1d       	adc	r25, r1
    20ac:	08 95       	ret

000020ae <__muluhisi3>:
    20ae:	0e 94 48 10 	call	0x2090	; 0x2090 <__umulhisi3>
    20b2:	a5 9f       	mul	r26, r21
    20b4:	90 0d       	add	r25, r0
    20b6:	b4 9f       	mul	r27, r20
    20b8:	90 0d       	add	r25, r0
    20ba:	a4 9f       	mul	r26, r20
    20bc:	80 0d       	add	r24, r0
    20be:	91 1d       	adc	r25, r1
    20c0:	11 24       	eor	r1, r1
    20c2:	08 95       	ret

000020c4 <__udivmodsi4>:
    20c4:	a1 e2       	ldi	r26, 0x21	; 33
    20c6:	1a 2e       	mov	r1, r26
    20c8:	aa 1b       	sub	r26, r26
    20ca:	bb 1b       	sub	r27, r27
    20cc:	fd 01       	movw	r30, r26
    20ce:	0d c0       	rjmp	.+26     	; 0x20ea <__udivmodsi4_ep>

000020d0 <__udivmodsi4_loop>:
    20d0:	aa 1f       	adc	r26, r26
    20d2:	bb 1f       	adc	r27, r27
    20d4:	ee 1f       	adc	r30, r30
    20d6:	ff 1f       	adc	r31, r31
    20d8:	a2 17       	cp	r26, r18
    20da:	b3 07       	cpc	r27, r19
    20dc:	e4 07       	cpc	r30, r20
    20de:	f5 07       	cpc	r31, r21
    20e0:	20 f0       	brcs	.+8      	; 0x20ea <__udivmodsi4_ep>
    20e2:	a2 1b       	sub	r26, r18
    20e4:	b3 0b       	sbc	r27, r19
    20e6:	e4 0b       	sbc	r30, r20
    20e8:	f5 0b       	sbc	r31, r21

000020ea <__udivmodsi4_ep>:
    20ea:	66 1f       	adc	r22, r22
    20ec:	77 1f       	adc	r23, r23
    20ee:	88 1f       	adc	r24, r24
    20f0:	99 1f       	adc	r25, r25
    20f2:	1a 94       	dec	r1
    20f4:	69 f7       	brne	.-38     	; 0x20d0 <__udivmodsi4_loop>
    20f6:	60 95       	com	r22
    20f8:	70 95       	com	r23
    20fa:	80 95       	com	r24
    20fc:	90 95       	com	r25
    20fe:	9b 01       	movw	r18, r22
    2100:	ac 01       	movw	r20, r24
    2102:	bd 01       	movw	r22, r26
    2104:	cf 01       	movw	r24, r30
    2106:	08 95       	ret

00002108 <eeprom_read_block>:
    2108:	dc 01       	movw	r26, r24
    210a:	cb 01       	movw	r24, r22

0000210c <eeprom_read_blraw>:
    210c:	fc 01       	movw	r30, r24
    210e:	e1 99       	sbic	0x1c, 1	; 28
    2110:	fe cf       	rjmp	.-4      	; 0x210e <eeprom_read_blraw+0x2>
    2112:	06 c0       	rjmp	.+12     	; 0x2120 <eeprom_read_blraw+0x14>
    2114:	ff bb       	out	0x1f, r31	; 31
    2116:	ee bb       	out	0x1e, r30	; 30
    2118:	e0 9a       	sbi	0x1c, 0	; 28
    211a:	31 96       	adiw	r30, 0x01	; 1
    211c:	0d b2       	in	r0, 0x1d	; 29
    211e:	0d 92       	st	X+, r0
    2120:	41 50       	subi	r20, 0x01	; 1
    2122:	50 40       	sbci	r21, 0x00	; 0
    2124:	b8 f7       	brcc	.-18     	; 0x2114 <eeprom_read_blraw+0x8>
    2126:	08 95       	ret

00002128 <eeprom_update_block>:
    2128:	dc 01       	movw	r26, r24
    212a:	a4 0f       	add	r26, r20
    212c:	b5 1f       	adc	r27, r21
    212e:	41 50       	subi	r20, 0x01	; 1
    2130:	50 40       	sbci	r21, 0x00	; 0
    2132:	48 f0       	brcs	.+18     	; 0x2146 <eeprom_update_block+0x1e>
    2134:	cb 01       	movw	r24, r22
    2136:	84 0f       	add	r24, r20
    2138:	95 1f       	adc	r25, r21
    213a:	2e 91       	ld	r18, -X
    213c:	0e 94 a5 10 	call	0x214a	; 0x214a <eeprom_update_r18>
    2140:	41 50       	subi	r20, 0x01	; 1
    2142:	50 40       	sbci	r21, 0x00	; 0
    2144:	d0 f7       	brcc	.-12     	; 0x213a <eeprom_update_block+0x12>
    2146:	08 95       	ret

00002148 <eeprom_update_byte>:
    2148:	26 2f       	mov	r18, r22

0000214a <eeprom_update_r18>:
    214a:	e1 99       	sbic	0x1c, 1	; 28
    214c:	fe cf       	rjmp	.-4      	; 0x214a <eeprom_update_r18>
    214e:	9f bb       	out	0x1f, r25	; 31
    2150:	8e bb       	out	0x1e, r24	; 30
    2152:	e0 9a       	sbi	0x1c, 0	; 28
    2154:	01 97       	sbiw	r24, 0x01	; 1
    2156:	0d b2       	in	r0, 0x1d	; 29
    2158:	02 16       	cp	r0, r18
    215a:	31 f0       	breq	.+12     	; 0x2168 <eeprom_update_r18+0x1e>
    215c:	2d bb       	out	0x1d, r18	; 29
    215e:	0f b6       	in	r0, 0x3f	; 63
    2160:	f8 94       	cli
    2162:	e2 9a       	sbi	0x1c, 2	; 28
    2164:	e1 9a       	sbi	0x1c, 1	; 28
    2166:	0f be       	out	0x3f, r0	; 63
    2168:	08 95       	ret

0000216a <_exit>:
    216a:	f8 94       	cli

0000216c <__stop_program>:
    216c:	ff cf       	rjmp	.-2      	; 0x216c <__stop_program>
